gplink-2.2.37 (Jan 22 2024)
Listing File Generated: 2025-1-6  17:52:13
 
 
Address  Value    Disassembly              Source
-------  -----    -----------              ------
                                           ;--------------------------------------------------------
                                           ; external declarations
                                           ;--------------------------------------------------------
                                           	extern	__mullong
                                           	extern	__divulong
                                           	extern	_INDF0bits
                                           	extern	_INDF1bits
                                           	extern	_INDF2bits
                                           	extern	_HIBYTEbits
                                           	extern	_FSR0bits
                                           	extern	_FSR1bits
                                           	extern	_PCLbits
                                           	extern	_PFLAGbits
                                           	extern	_MCRbits
                                           	extern	_INDF3bits
                                           	extern	_INTEbits
                                           	extern	_INTFbits
                                           	extern	_DRVCRbits
                                           	extern	_P0KBCRbits
                                           	extern	_P1KBCRbits
                                           	extern	_P2KBCRbits
                                           	extern	_IOP0bits
                                           	extern	_OEP0bits
                                           	extern	_PUP0bits
                                           	extern	_PDP0bits
                                           	extern	_IOP1bits
                                           	extern	_OEP1bits
                                           	extern	_PUP1bits
                                           	extern	_PDP1bits
                                           	extern	_T0CRbits
                                           	extern	_T0CNTbits
                                           	extern	_T0LOADbits
                                           	extern	_T0DATAbits
                                           	extern	_T1CRbits
                                           	extern	_T1CNTbits
                                           	extern	_T1LOADbits
                                           	extern	_T1DATAbits
                                           	extern	_T2CRbits
                                           	extern	_T2CNTbits
                                           	extern	_T2LOADbits
                                           	extern	_T2DATAbits
                                           	extern	_T3CRbits
                                           	extern	_T3CNTbits
                                           	extern	_T3LOADbits
                                           	extern	_PWM0DRbits
                                           	extern	_PWM1DRbits
                                           	extern	_PWM2DRbits
                                           	extern	_PWMCR0bits
                                           	extern	_PWMCR1bits
                                           	extern	_OSCMRbits
                                           	extern	_LVDCRbits
                                           	extern	_ADCR0bits
                                           	extern	_ADCR1bits
                                           	extern	_ADCR2bits
                                           	extern	_OSADJCRbits
                                           	extern	_ADRHbits
                                           	extern	_ADRLbits
                                           	extern	_P0ADCRbits
                                           	extern	_P1ADCRbits
                                           	extern	_IOP2bits
                                           	extern	_OEP2bits
                                           	extern	_PUP2bits
                                           	extern	_PDP2bits
                                           	extern	_PMODbits
                                           	extern	_PWMCR3bits
                                           	extern	_PWMCR2bits
                                           	extern	_PFRCCRbits
                                           	extern	_PFRCCALbits
                                           	extern	_EECRbits
                                           	extern	_EEPRbits
                                           	extern	_EEARbits
                                           	extern	_EEDRHbits
                                           	extern	_EEDRLbits
                                           	extern	_DBGCRbits
                                           	extern	_DBGPRbits
                                           	extern	_HIRCCALbits
                                           	extern	_INDF0
                                           	extern	_INDF1
                                           	extern	_INDF2
                                           	extern	_HIBYTE
                                           	extern	_FSR0
                                           	extern	_FSR1
                                           	extern	_PCL
                                           	extern	_PFLAG
                                           	extern	_MCR
                                           	extern	_INDF3
                                           	extern	_INTE
                                           	extern	_INTF
                                           	extern	_DRVCR
                                           	extern	_P0KBCR
                                           	extern	_P1KBCR
                                           	extern	_P2KBCR
                                           	extern	_IOP0
                                           	extern	_OEP0
                                           	extern	_PUP0
                                           	extern	_PDP0
                                           	extern	_IOP1
                                           	extern	_OEP1
                                           	extern	_PUP1
                                           	extern	_PDP1
                                           	extern	_T0CR
                                           	extern	_T0CNT
                                           	extern	_T0LOAD
                                           	extern	_T0DATA
                                           	extern	_T1CR
                                           	extern	_T1CNT
                                           	extern	_T1LOAD
                                           	extern	_T1DATA
                                           	extern	_T2CR
                                           	extern	_T2CNT
                                           	extern	_T2LOAD
                                           	extern	_T2DATA
                                           	extern	_T3CR
                                           	extern	_T3CNT
                                           	extern	_T3LOAD
                                           	extern	_PWM0DR
                                           	extern	_PWM1DR
                                           	extern	_PWM2DR
                                           	extern	_PWMCR0
                                           	extern	_PWMCR1
                                           	extern	_OSCMR
                                           	extern	_LVDCR
                                           	extern	_ADCR0
                                           	extern	_ADCR1
                                           	extern	_ADCR2
                                           	extern	_OSADJCR
                                           	extern	_ADRH
                                           	extern	_ADRL
                                           	extern	_P0ADCR
                                           	extern	_P1ADCR
                                           	extern	_IOP2
                                           	extern	_OEP2
                                           	extern	_PUP2
                                           	extern	_PDP2
                                           	extern	_PMOD
                                           	extern	_PWMCR3
                                           	extern	_PWMCR2
                                           	extern	_PFRCCR
                                           	extern	_PFRCCAL
                                           	extern	_EECR
                                           	extern	_EEPR
                                           	extern	_EEAR
                                           	extern	_EEDRH
                                           	extern	_EEDRL
                                           	extern	_DBGCR
                                           	extern	_DBGPR
                                           	extern	_HIRCCAL
                                           ;--------------------------------------------------------
                                           ; global declarations
                                           ;--------------------------------------------------------
                                           	global	_delay_ms
                                           	global	_CLR_RAM
                                           	global	_IO_Init
                                           	global	_adc_config
                                           	global	_timer0_pwm_config
                                           	global	_timer1_pwm_config
                                           	global	_timer2_pwm_config
                                           	global	_key_config
                                           	global	_adc_sel_pin
                                           	global	_adc_get_val
                                           	global	_adc_get_val_once
                                           	global	_Sys_Init
                                           	global	_key_scan_handle
                                           	global	_adc_scan_handle
                                           	global	_turn_dir_scan_handle
                                           	global	_shutdown_scan_handle
                                           	global	_low_power_scan_handle
                                           	global	_main
                                           	global	_int_isr
                                           	global	_mode_flag
                                           	global	_key_press_flag
                                           	global	_i
                                           	global	_adc_val
                                           	global	_turn_dir_ms_cnt
                                           	global	_shut_down_ms_cnt
                                           	global	_adc_bat_val
                                           	global	_adc_charging_val
                                           	global	_max_pwm_val
                                           	global	_last_pwm_val
                                           	global	_tmp_val
                                           	global	_tmp_val_l
                                           	global	_tmp_val_cnt
                                           	global	_flag_bat_is_empty
                                           	global	_tmp_bat_val
                                           	global	_over_charging_cnt
                                           	global	_full_charge_cnt
                                           	global	_abuf
                                           	global	_statusbuf
                                           	global	_flag1
                                           	global	_flag2
                                           
                                           	global STK06
                                           	global STK05
                                           	global STK04
                                           	global STK03
                                           	global STK02
                                           	global STK01
                                           	global STK00
                                           
                                           sharebank udata_ovr 0x0000
                                           STK06	res 1
                                           STK05	res 1
                                           STK04	res 1
                                           STK03	res 1
                                           STK02	res 1
                                           STK01	res 1
                                           STK00	res 1
                                           
                                           ;--------------------------------------------------------
                                           ; global definitions
                                           ;--------------------------------------------------------
                                           UD_MC32F7361_0	udata
                                           _mode_flag	res	1
                                           
                                           UD_MC32F7361_1	udata
                                           _key_press_flag	res	1
                                           
                                           UD_MC32F7361_2	udata
                                           _i	res	1
                                           
                                           UD_MC32F7361_3	udata
                                           _adc_val	res	2
                                           
                                           UD_MC32F7361_4	udata
                                           _turn_dir_ms_cnt	res	4
                                           
                                           UD_MC32F7361_5	udata
                                           _shut_down_ms_cnt	res	4
                                           
                                           UD_MC32F7361_6	udata
                                           _adc_bat_val	res	4
                                           
                                           UD_MC32F7361_7	udata
                                           _adc_charging_val	res	2
                                           
                                           UD_MC32F7361_8	udata
                                           _max_pwm_val	res	4
                                           
                                           UD_MC32F7361_9	udata
                                           _last_pwm_val	res	2
                                           
                                           UD_MC32F7361_10	udata
                                           _tmp_val	res	2
                                           
                                           UD_MC32F7361_11	udata
                                           _tmp_val_l	res	16
                                           
                                           UD_MC32F7361_12	udata
                                           _tmp_val_cnt	res	1
                                           
                                           UD_MC32F7361_13	udata
                                           _flag_bat_is_empty	res	1
                                           
                                           UD_MC32F7361_14	udata
                                           _tmp_bat_val	res	2
                                           
                                           UD_MC32F7361_15	udata
                                           _over_charging_cnt	res	1
                                           
                                           UD_MC32F7361_16	udata
                                           _full_charge_cnt	res	4
                                           
                                           UD_MC32F7361_17	udata
                                           _abuf	res	1
                                           
                                           UD_MC32F7361_18	udata
                                           _statusbuf	res	1
                                           
                                           UD_MC32F7361_19	udata
                                           _flag1	res	1
                                           
                                           UD_MC32F7361_20	udata
                                           _flag2	res	1
                                           
                                           ;--------------------------------------------------------
                                           ; absolute symbol definitions
                                           ;--------------------------------------------------------
                                           ;--------------------------------------------------------
                                           ; compiler-defined variables
                                           ;--------------------------------------------------------
                                           UDL_MC32F7361_0	udata
                                           r0x1038	res	1
                                           r0x1037	res	1
                                           r0x1039	res	1
                                           r0x103A	res	1
                                           r0x103B	res	1
                                           r0x103C	res	1
                                           r0x103D	res	1
                                           r0x103E	res	1
                                           r0x103F	res	1
                                           r0x1040	res	1
                                           r0x1041	res	1
                                           r0x1043	res	1
                                           r0x1042	res	1
                                           r0x1044	res	1
                                           r0x1045	res	1
                                           r0x1046	res	1
                                           r0x1047	res	1
                                           r0x1048	res	1
                                           r0x1049	res	1
                                           r0x104A	res	1
                                           r0x104B	res	1
                                           r0x104D	res	1
                                           r0x104C	res	1
                                           r0x104E	res	1
                                           r0x104F	res	1
                                           r0x1050	res	1
                                           r0x1051	res	1
                                           r0x1052	res	1
                                           r0x1053	res	1
                                           r0x1054	res	1
                                           r0x1055	res	1
                                           _key_scan_handle_flag_is_key_mode_hold_131072_34	res	1
                                           _adc_scan_handle_cnt_65536_65	res	1
                                           _adc_scan_handle_need_charge_cnt_65536_65	res	1
                                           ;--------------------------------------------------------
                                           ; initialized data
                                           ;--------------------------------------------------------
                                           
                                           ;@Allocation info for local variables in function 'delay_ms'
                                           ;@delay_ms delay_ms                  Allocated to registers ;size:2
                                           ;@delay_ms INDF0bits                 Allocated to registers ;size:1
                                           ;@delay_ms INDF1bits                 Allocated to registers ;size:1
                                           ;@delay_ms INDF2bits                 Allocated to registers ;size:1
                                           ;@delay_ms HIBYTEbits                Allocated to registers ;size:1
                                           ;@delay_ms FSR0bits                  Allocated to registers ;size:1
                                           ;@delay_ms FSR1bits                  Allocated to registers ;size:1
                                           ;@delay_ms PCLbits                   Allocated to registers ;size:1
                                           ;@delay_ms PFLAGbits                 Allocated to registers ;size:1
                                           ;@delay_ms MCRbits                   Allocated to registers ;size:1
                                           ;@delay_ms INDF3bits                 Allocated to registers ;size:1
                                           ;@delay_ms INTEbits                  Allocated to registers ;size:1
                                           ;@delay_ms INTFbits                  Allocated to registers ;size:1
                                           ;@delay_ms DRVCRbits                 Allocated to registers ;size:1
                                           ;@delay_ms P0KBCRbits                Allocated to registers ;size:1
                                           ;@delay_ms P1KBCRbits                Allocated to registers ;size:1
                                           ;@delay_ms P2KBCRbits                Allocated to registers ;size:1
                                           ;@delay_ms IOP0bits                  Allocated to registers ;size:1
                                           ;@delay_ms OEP0bits                  Allocated to registers ;size:1
                                           ;@delay_ms PUP0bits                  Allocated to registers ;size:1
                                           ;@delay_ms PDP0bits                  Allocated to registers ;size:1
                                           ;@delay_ms IOP1bits                  Allocated to registers ;size:1
                                           ;@delay_ms OEP1bits                  Allocated to registers ;size:1
                                           ;@delay_ms PUP1bits                  Allocated to registers ;size:1
                                           ;@delay_ms PDP1bits                  Allocated to registers ;size:1
                                           ;@delay_ms T0CRbits                  Allocated to registers ;size:1
                                           ;@delay_ms T0CNTbits                 Allocated to registers ;size:1
                                           ;@delay_ms T0LOADbits                Allocated to registers ;size:1
                                           ;@delay_ms T0DATAbits                Allocated to registers ;size:1
                                           ;@delay_ms T1CRbits                  Allocated to registers ;size:1
                                           ;@delay_ms T1CNTbits                 Allocated to registers ;size:1
                                           ;@delay_ms T1LOADbits                Allocated to registers ;size:1
                                           ;@delay_ms T1DATAbits                Allocated to registers ;size:1
                                           ;@delay_ms T2CRbits                  Allocated to registers ;size:1
                                           ;@delay_ms T2CNTbits                 Allocated to registers ;size:1
                                           ;@delay_ms T2LOADbits                Allocated to registers ;size:1
                                           ;@delay_ms T2DATAbits                Allocated to registers ;size:1
                                           ;@delay_ms T3CRbits                  Allocated to registers ;size:1
                                           ;@delay_ms T3CNTbits                 Allocated to registers ;size:1
                                           ;@delay_ms T3LOADbits                Allocated to registers ;size:1
                                           ;@delay_ms PWM0DRbits                Allocated to registers ;size:1
                                           ;@delay_ms PWM1DRbits                Allocated to registers ;size:1
                                           ;@delay_ms PWM2DRbits                Allocated to registers ;size:1
                                           ;@delay_ms PWMCR0bits                Allocated to registers ;size:1
                                           ;@delay_ms PWMCR1bits                Allocated to registers ;size:1
                                           ;@delay_ms OSCMRbits                 Allocated to registers ;size:1
                                           ;@delay_ms LVDCRbits                 Allocated to registers ;size:1
                                           ;@delay_ms ADCR0bits                 Allocated to registers ;size:1
                                           ;@delay_ms ADCR1bits                 Allocated to registers ;size:1
                                           ;@delay_ms ADCR2bits                 Allocated to registers ;size:1
                                           ;@delay_ms OSADJCRbits               Allocated to registers ;size:1
                                           ;@delay_ms ADRHbits                  Allocated to registers ;size:1
                                           ;@delay_ms ADRLbits                  Allocated to registers ;size:1
                                           ;@delay_ms P0ADCRbits                Allocated to registers ;size:1
                                           ;@delay_ms P1ADCRbits                Allocated to registers ;size:1
                                           ;@delay_ms IOP2bits                  Allocated to registers ;size:1
                                           ;@delay_ms OEP2bits                  Allocated to registers ;size:1
                                           ;@delay_ms PUP2bits                  Allocated to registers ;size:1
                                           ;@delay_ms PDP2bits                  Allocated to registers ;size:1
                                           ;@delay_ms PMODbits                  Allocated to registers ;size:1
                                           ;@delay_ms PWMCR3bits                Allocated to registers ;size:1
                                           ;@delay_ms PWMCR2bits                Allocated to registers ;size:1
                                           ;@delay_ms PFRCCRbits                Allocated to registers ;size:1
                                           ;@delay_ms PFRCCALbits               Allocated to registers ;size:1
                                           ;@delay_ms EECRbits                  Allocated to registers ;size:1
                                           ;@delay_ms EEPRbits                  Allocated to registers ;size:1
                                           ;@delay_ms EEARbits                  Allocated to registers ;size:1
                                           ;@delay_ms EEDRHbits                 Allocated to registers ;size:1
                                           ;@delay_ms EEDRLbits                 Allocated to registers ;size:1
                                           ;@delay_ms DBGCRbits                 Allocated to registers ;size:1
                                           ;@delay_ms DBGPRbits                 Allocated to registers ;size:1
                                           ;@delay_ms HIRCCALbits               Allocated to registers ;size:1
                                           ;@delay_ms mode_flag                 Allocated to registers ;size:1
                                           ;@delay_ms key_press_flag            Allocated to registers ;size:1
                                           ;@delay_ms i                         Allocated to registers ;size:1
                                           ;@delay_ms adc_val                   Allocated to registers ;size:2
                                           ;@delay_ms turn_dir_ms_cnt           Allocated to registers ;size:4
                                           ;@delay_ms shut_down_ms_cnt          Allocated to registers ;size:4
                                           ;@delay_ms adc_bat_val               Allocated to registers ;size:4
                                           ;@delay_ms adc_charging_val          Allocated to registers ;size:2
                                           ;@delay_ms max_pwm_val               Allocated to registers ;size:4
                                           ;@delay_ms last_pwm_val              Allocated to registers ;size:2
                                           ;@delay_ms tmp_val                   Allocated to registers ;size:2
                                           ;@delay_ms tmp_val_l                 Allocated to registers ;size:16
                                           ;@delay_ms tmp_val_cnt               Allocated to registers ;size:1
                                           ;@delay_ms flag_bat_is_empty         Allocated to registers ;size:1
                                           ;@delay_ms tmp_bat_val               Allocated to registers ;size:2
                                           ;@delay_ms over_charging_cnt         Allocated to registers ;size:1
                                           ;@delay_ms full_charge_cnt           Allocated to registers ;size:4
                                           ;@delay_ms abuf                      Allocated to registers ;size:1
                                           ;@delay_ms statusbuf                 Allocated to registers ;size:1
                                           ;@delay_ms flag1                     Allocated to registers ;size:1
                                           ;@delay_ms flag2                     Allocated to registers ;size:1
                                           ;@delay_ms xms                       Allocated to registers ;size:2
                                           ;@delay_ms i                         Allocated to registers r0x1039 r0x103A ;size:2
                                           ;@delay_ms INDF0                     Allocated to registers ;size:1
                                           ;@delay_ms INDF1                     Allocated to registers ;size:1
                                           ;@delay_ms INDF2                     Allocated to registers ;size:1
                                           ;@delay_ms HIBYTE                    Allocated to registers ;size:1
                                           ;@delay_ms FSR0                      Allocated to registers ;size:1
                                           ;@delay_ms FSR1                      Allocated to registers ;size:1
                                           ;@delay_ms PCL                       Allocated to registers ;size:1
                                           ;@delay_ms PFLAG                     Allocated to registers ;size:1
                                           ;@delay_ms MCR                       Allocated to registers ;size:1
                                           ;@delay_ms INDF3                     Allocated to registers ;size:1
                                           ;@delay_ms INTE                      Allocated to registers ;size:1
                                           ;@delay_ms INTF                      Allocated to registers ;size:1
                                           ;@delay_ms DRVCR                     Allocated to registers ;size:1
                                           ;@delay_ms P0KBCR                    Allocated to registers ;size:1
                                           ;@delay_ms P1KBCR                    Allocated to registers ;size:1
                                           ;@delay_ms P2KBCR                    Allocated to registers ;size:1
                                           ;@delay_ms IOP0                      Allocated to registers ;size:1
                                           ;@delay_ms OEP0                      Allocated to registers ;size:1
                                           ;@delay_ms PUP0                      Allocated to registers ;size:1
                                           ;@delay_ms PDP0                      Allocated to registers ;size:1
                                           ;@delay_ms IOP1                      Allocated to registers ;size:1
                                           ;@delay_ms OEP1                      Allocated to registers ;size:1
                                           ;@delay_ms PUP1                      Allocated to registers ;size:1
                                           ;@delay_ms PDP1                      Allocated to registers ;size:1
                                           ;@delay_ms T0CR                      Allocated to registers ;size:1
                                           ;@delay_ms T0CNT                     Allocated to registers ;size:1
                                           ;@delay_ms T0LOAD                    Allocated to registers ;size:1
                                           ;@delay_ms T0DATA                    Allocated to registers ;size:1
                                           ;@delay_ms T1CR                      Allocated to registers ;size:1
                                           ;@delay_ms T1CNT                     Allocated to registers ;size:1
                                           ;@delay_ms T1LOAD                    Allocated to registers ;size:1
                                           ;@delay_ms T1DATA                    Allocated to registers ;size:1
                                           ;@delay_ms T2CR                      Allocated to registers ;size:1
                                           ;@delay_ms T2CNT                     Allocated to registers ;size:1
                                           ;@delay_ms T2LOAD                    Allocated to registers ;size:1
                                           ;@delay_ms T2DATA                    Allocated to registers ;size:1
                                           ;@delay_ms T3CR                      Allocated to registers ;size:1
                                           ;@delay_ms T3CNT                     Allocated to registers ;size:1
                                           ;@delay_ms T3LOAD                    Allocated to registers ;size:1
                                           ;@delay_ms PWM0DR                    Allocated to registers ;size:1
                                           ;@delay_ms PWM1DR                    Allocated to registers ;size:1
                                           ;@delay_ms PWM2DR                    Allocated to registers ;size:1
                                           ;@delay_ms PWMCR0                    Allocated to registers ;size:1
                                           ;@delay_ms PWMCR1                    Allocated to registers ;size:1
                                           ;@delay_ms OSCMR                     Allocated to registers ;size:1
                                           ;@delay_ms LVDCR                     Allocated to registers ;size:1
                                           ;@delay_ms ADCR0                     Allocated to registers ;size:1
                                           ;@delay_ms ADCR1                     Allocated to registers ;size:1
                                           ;@delay_ms ADCR2                     Allocated to registers ;size:1
                                           ;@delay_ms OSADJCR                   Allocated to registers ;size:1
                                           ;@delay_ms ADRH                      Allocated to registers ;size:1
                                           ;@delay_ms ADRL                      Allocated to registers ;size:1
                                           ;@delay_ms P0ADCR                    Allocated to registers ;size:1
                                           ;@delay_ms P1ADCR                    Allocated to registers ;size:1
                                           ;@delay_ms IOP2                      Allocated to registers ;size:1
                                           ;@delay_ms OEP2                      Allocated to registers ;size:1
                                           ;@delay_ms PUP2                      Allocated to registers ;size:1
                                           ;@delay_ms PDP2                      Allocated to registers ;size:1
                                           ;@delay_ms PMOD                      Allocated to registers ;size:1
                                           ;@delay_ms PWMCR3                    Allocated to registers ;size:1
                                           ;@delay_ms PWMCR2                    Allocated to registers ;size:1
                                           ;@delay_ms PFRCCR                    Allocated to registers ;size:1
                                           ;@delay_ms PFRCCAL                   Allocated to registers ;size:1
                                           ;@delay_ms EECR                      Allocated to registers ;size:1
                                           ;@delay_ms EEPR                      Allocated to registers ;size:1
                                           ;@delay_ms EEAR                      Allocated to registers ;size:1
                                           ;@delay_ms EEDRH                     Allocated to registers ;size:1
                                           ;@delay_ms EEDRL                     Allocated to registers ;size:1
                                           ;@delay_ms DBGCR                     Allocated to registers ;size:1
                                           ;@delay_ms DBGPR                     Allocated to registers ;size:1
                                           ;@delay_ms HIRCCAL                   Allocated to registers ;size:1
                                           ;@end Allocation info for local variables in function 'delay_ms';
                                           ;@Allocation info for local variables in function 'CLR_RAM'
                                           ;@end Allocation info for local variables in function 'CLR_RAM';
                                           ;@Allocation info for local variables in function 'IO_Init'
                                           ;@end Allocation info for local variables in function 'IO_Init';
                                           ;@Allocation info for local variables in function 'adc_config'
                                           ;@end Allocation info for local variables in function 'adc_config';
                                           ;@Allocation info for local variables in function 'timer0_pwm_config'
                                           ;@end Allocation info for local variables in function 'timer0_pwm_config';
                                           ;@Allocation info for local variables in function 'timer1_pwm_config'
                                           ;@end Allocation info for local variables in function 'timer1_pwm_config';
                                           ;@Allocation info for local variables in function 'timer2_pwm_config'
                                           ;@end Allocation info for local variables in function 'timer2_pwm_config';
                                           ;@Allocation info for local variables in function 'key_config'
                                           ;@end Allocation info for local variables in function 'key_config';
                                           ;@Allocation info for local variables in function 'adc_sel_pin'
                                           ;@adc_sel_pin adc_pin                   Allocated to registers r0x103D ;size:1
                                           ;@end Allocation info for local variables in function 'adc_sel_pin';
                                           ;@Allocation info for local variables in function 'adc_get_val'
                                           ;@adc_get_val i                         Allocated to registers r0x103F ;size:1
                                           ;@adc_get_val g_temp_value              Allocated to registers r0x1040 r0x1041 ;size:2
                                           ;@adc_get_val g_tmpbuff                 Allocated to registers r0x103B r0x103C r0x1042 r0x1044 ;size:4
                                           ;@adc_get_val g_adcmax                  Allocated to registers r0x103B r0x103C ;size:2
                                           ;@adc_get_val g_adcmin                  Allocated to registers r0x103D r0x103E ;size:2
                                           ;@end Allocation info for local variables in function 'adc_get_val';
                                           ;@Allocation info for local variables in function 'adc_get_val_once'
                                           ;@adc_get_val_once g_temp_value              Allocated to registers r0x103A r0x1039 ;size:2
                                           ;@end Allocation info for local variables in function 'adc_get_val_once';
                                           ;@Allocation info for local variables in function 'Sys_Init'
                                           ;@end Allocation info for local variables in function 'Sys_Init';
                                           ;@Allocation info for local variables in function 'key_scan_handle'
                                           ;@key_scan_handle flag_is_key_mode_hold     Allocated to registers ;size:1
                                           ;@key_scan_handle press_cnt                 Allocated to registers r0x103D r0x103E ;size:2
                                           ;@key_scan_handle press_cnt                 Allocated to registers r0x103D r0x103E ;size:2
                                           ;@end Allocation info for local variables in function 'key_scan_handle';
                                           ;@Allocation info for local variables in function 'key_scan_handle'
                                           ;@key_scan_handle flag_is_key_mode_hold     Allocated to registers ;size:1
                                           ;@key_scan_handle press_cnt                 Allocated to registers r0x103D r0x103E ;size:2
                                           ;@key_scan_handle press_cnt                 Allocated to registers r0x103D r0x103E ;size:2
                                           ;@end Allocation info for local variables in function 'key_scan_handle';
                                           ;@Allocation info for local variables in function 'adc_scan_handle'
                                           ;@adc_scan_handle cnt                       Allocated to registers ;size:1
                                           ;@adc_scan_handle need_charge_cnt           Allocated to registers ;size:1
                                           ;@end Allocation info for local variables in function 'adc_scan_handle';
                                           ;@Allocation info for local variables in function 'turn_dir_scan_handle'
                                           ;@end Allocation info for local variables in function 'turn_dir_scan_handle';
                                           ;@Allocation info for local variables in function 'shutdown_scan_handle'
                                           ;@end Allocation info for local variables in function 'shutdown_scan_handle';
                                           ;@Allocation info for local variables in function 'low_power_scan_handle'
                                           ;@end Allocation info for local variables in function 'low_power_scan_handle';
                                           ;@Allocation info for local variables in function 'main'
                                           ;@end Allocation info for local variables in function 'main';
                                           ;@Allocation info for local variables in function 'int_isr'
                                           ;@end Allocation info for local variables in function 'int_isr';
                                           
                                           ;--------------------------------------------------------
                                           ; overlayable items in internal ram 
                                           ;--------------------------------------------------------
                                           ;	udata_ovr
                                           ;--------------------------------------------------------
                                           ; reset vector 
                                           ;--------------------------------------------------------
                                           STARTUP	code 0x0000
000000   a01d     goto    0x1d             	goto	_main
                                           ;--------------------------------------------------------
                                           ; interrupt and initialization code
                                           ;--------------------------------------------------------
                                           c_interrupt	code	0x8
                                           __sdcc_interrupt
                                           ;***
                                           ;  pBlock Stats: dbName = I
                                           ;***
                                           ;entry:  _int_isr	;Function start
                                           ; 0 exit points
                                           ;2 compiler assigned registers:
                                           ;   r0x1054
                                           ;   r0x1055
                                           ;; Starting pCode block
                                           _int_isr	;Function start
                                           ; 0 exit points
                                           ;	.line	1050; "MC32F7361.c"	__endasm;
                                           	;
000008   567e     movra   0x7e             	movra	_abuf;
000009   4587     swapar  0x187            	swapar	_PFLAG;
00000a   567f     movra   0x7f             	movra	_statusbuf;
                                           	
                                           ;	.line	1052; "MC32F7361.c"	if (INT0IF & INT0IE)
00000b   7624     clrr    0x24             	CLRR	r0x1054
00000c   f58b     jbclr   0x18b, 0x2       	JBCLR	_INTFbits,2
00000d   6624     incr    0x24             	INCR	r0x1054
00000e   7625     clrr    0x25             	CLRR	r0x1055
00000f   f58a     jbclr   0x18a, 0x2       	JBCLR	_INTEbits,2
000010   6625     incr    0x25             	INCR	r0x1055
000011   5825     movar   0x25             	MOVAR	r0x1055
000012   7a24     andra   0x24             	ANDRA	r0x1054
000013   3c00     movai   0                	MOVAI	0x00
000014   5c24     orar    0x24             	ORAR	r0x1054
000015   f587     jbclr   0x187, 0x2       	JBCLR	PFLAG,2
000016   a018     goto    0x18             	GOTO	_00831_DS_
                                           ;	.line	1054; "MC32F7361.c"	INT0IF = 0;
000017   d58b     bclr    0x18b, 0x2       	BCLR	_INTFbits,2
                                           _00831_DS_
                                           ;	.line	1076; "MC32F7361.c"	__endasm;
                                           	;
000018   447f     swapar  0x7f             	swapar	_statusbuf;
000019   5787     movra   0x187            	movra	_PFLAG;
00001a   467e     swapr   0x7e             	swapr	_abuf;
00001b   447e     swapar  0x7e             	swapar	_abuf;
                                           	
                                           END_OF_INTERRUPT
                                           ;	.line	1077; "MC32F7361.c"	}
00001c   000d     retie                    	RETIE	
                                           
                                           ;--------------------------------------------------------
                                           ; code
                                           ;--------------------------------------------------------
                                           code_MC32F7361	code
                                           ;***
                                           ;  pBlock Stats: dbName = M
                                           ;***
                                           ;entry:  _main	;Function start
                                           ; 2 exit points
                                           ;has an exit
                                           ;functions called:
                                           ;   _Sys_Init
                                           ;   _adc_sel_pin
                                           ;   _adc_get_val
                                           ;   _key_scan_handle
                                           ;   _adc_scan_handle
                                           ;   _turn_dir_scan_handle
                                           ;   _shutdown_scan_handle
                                           ;   __mullong
                                           ;   __divulong
                                           ;   __mullong
                                           ;   __mullong
                                           ;   __divulong
                                           ;   __divulong
                                           ;   _delay_ms
                                           ;   _delay_ms
                                           ;   _low_power_scan_handle
                                           ;   _Sys_Init
                                           ;   _adc_sel_pin
                                           ;   _adc_get_val
                                           ;   _key_scan_handle
                                           ;   _adc_scan_handle
                                           ;   _turn_dir_scan_handle
                                           ;   _shutdown_scan_handle
                                           ;   __mullong
                                           ;   __divulong
                                           ;   __mullong
                                           ;   __mullong
                                           ;   __divulong
                                           ;   __divulong
                                           ;   _delay_ms
                                           ;   _delay_ms
                                           ;   _low_power_scan_handle
                                           ;17 compiler assigned registers:
                                           ;   STK00
                                           ;   r0x104A
                                           ;   r0x104B
                                           ;   STK06
                                           ;   STK05
                                           ;   STK04
                                           ;   STK03
                                           ;   STK02
                                           ;   STK01
                                           ;   r0x104C
                                           ;   r0x104D
                                           ;   r0x104E
                                           ;   r0x104F
                                           ;   r0x1050
                                           ;   r0x1051
                                           ;   r0x1052
                                           ;   r0x1053
                                           ;; Starting pCode block
                                           _main	;Function start
                                           ; 2 exit points
                                           ;	.line	840; "MC32F7361.c"	Sys_Init();
00001d   850c     call    0x50c            	CALL	_Sys_Init
                                           ;	.line	843; "MC32F7361.c"	LED_WORKING_OFF();
00001e   c994     bset    0x194, 0x4       	BSET	_IOP1bits,4
                                           ;	.line	844; "MC32F7361.c"	LED_FULL_CHARGE_OFF();
00001f   c790     bset    0x190, 0x3       	BSET	_IOP0bits,3
                                           ;	.line	845; "MC32F7361.c"	LED_CHARGING_OFF();
000020   c990     bset    0x190, 0x4       	BSET	_IOP0bits,4
                                           ;	.line	850; "MC32F7361.c"	PWM2EC = 1; // pwm
000021   cda0     bset    0x1a0, 0x6       	BSET	_T2CRbits,6
                                           ;	.line	851; "MC32F7361.c"	T2DATA = 20;
000022   3c14     movai   0x14             	MOVAI	0x14
000023   57a3     movra   0x1a3            	MOVRA	_T2DATA
                                           ;	.line	852; "MC32F7361.c"	adc_sel_pin(ADC_PIN_P02_AN1); // 
000024   3c02     movai   0x2              	MOVAI	0x02
000025   85d3     call    0x5d3            	CALL	_adc_sel_pin
                                           ;	.line	853; "MC32F7361.c"	for (i = 0; i < 10; i++)      // 55ms4.8ms
000026   767a     clrr    0x7a             	CLRR	_i
                                           ;;unsigned compare: left < lit(0xA=10), size=1
                                           _00747_DS_
000027   3c0a     movai   0xa              	MOVAI	0x0a
000028   487a     rsubar  0x7a             	RSUBAR	_i
000029   f187     jbclr   0x187, 0         	JBCLR	PFLAG,0
00002a   a03c     goto    0x3c             	GOTO	_00705_DS_
                                           ;;genSkipc:3291: created from rifx:013B5EFC
                                           ;	.line	855; "MC32F7361.c"	adc_val = adc_get_val();
00002b   8536     call    0x536            	CALL	_adc_get_val
00002c   566f     movra   0x6f             	MOVRA	(_adc_val + 1)
00002d   5806     movar   0x6              	MOVAR	STK00
00002e   566e     movra   0x6e             	MOVRA	_adc_val
                                           ;;unsigned compare: left < lit(0xFA0=4000), size=2
                                           ;	.line	856; "MC32F7361.c"	if (adc_val >= ADCDETECT_BAT_FULL + ADCDETECT_BAT_NULL_EX)
00002f   3c0f     movai   0xf              	MOVAI	0x0f
000030   486f     rsubar  0x6f             	RSUBAR	(_adc_val + 1)
000031   e587     jbset   0x187, 0x2       	JBSET	PFLAG,2
000032   a035     goto    0x35             	GOTO	_00816_DS_
000033   3ca0     movai   0xa0             	MOVAI	0xa0
000034   486e     rsubar  0x6e             	RSUBAR	_adc_val
                                           _00816_DS_
000035   e187     jbset   0x187, 0         	JBSET	PFLAG,0
000036   a03a     goto    0x3a             	GOTO	_00748_DS_
                                           ;;genSkipc:3291: created from rifx:013B5EFC
                                           ;	.line	858; "MC32F7361.c"	flag_bat_is_empty = 1;
000037   3c01     movai   0x1              	MOVAI	0x01
000038   567c     movra   0x7c             	MOVRA	_flag_bat_is_empty
                                           ;	.line	859; "MC32F7361.c"	FLAG_DURING_CHARGING_BAT_IS_NULL = 1; // 
000039   ce80     bset    0x80, 0x7        	BSET	_flag1,7
                                           _00748_DS_
                                           ;	.line	853; "MC32F7361.c"	for (i = 0; i < 10; i++)      // 55ms4.8ms
00003a   667a     incr    0x7a             	INCR	_i
00003b   a027     goto    0x27             	GOTO	_00747_DS_
                                           _00705_DS_
                                           ;	.line	862; "MC32F7361.c"	PWM2EC = 0; // pwm
00003c   dda0     bclr    0x1a0, 0x6       	BCLR	_T2CRbits,6
                                           ;	.line	863; "MC32F7361.c"	T2DATA = 0;
00003d   77a3     clrr    0x1a3            	CLRR	_T2DATA
                                           _00744_DS_
                                           ;	.line	871; "MC32F7361.c"	key_scan_handle(); // 
00003e   8473     call    0x473            	CALL	_key_scan_handle
                                           ;	.line	872; "MC32F7361.c"	adc_scan_handle(); // (89ms)
00003f   8357     call    0x357            	CALL	_adc_scan_handle
                                           ;	.line	874; "MC32F7361.c"	turn_dir_scan_handle();
000040   8322     call    0x322            	CALL	_turn_dir_scan_handle
                                           ;	.line	875; "MC32F7361.c"	shutdown_scan_handle(); // 
000041   82fa     call    0x2fa            	CALL	_shutdown_scan_handle
                                           ;	.line	879; "MC32F7361.c"	if (FLAG_IS_IN_CHARGING)
000042   e480     jbset   0x80, 0x2        	JBSET	_flag1,2
000043   a28c     goto    0x28c            	GOTO	_00739_DS_
                                           ;	.line	881; "MC32F7361.c"	last_pwm_val = T2DATA;      // PWM
000044   59a3     movar   0x1a3            	MOVAR	_T2DATA
000045   5672     movra   0x72             	MOVRA	_last_pwm_val
000046   7673     clrr    0x73             	CLRR	(_last_pwm_val + 1)
                                           ;	.line	882; "MC32F7361.c"	max_pwm_val = (T2LOAD + 1); // PWM
000047   59a2     movar   0x1a2            	MOVAR	_T2LOAD
000048   561a     movra   0x1a             	MOVRA	r0x104A
000049   761b     clrr    0x1b             	CLRR	r0x104B
00004a   3c01     movai   0x1              	MOVAI	0x01
00004b   7c1a     addar   0x1a             	ADDAR	r0x104A
00004c   5666     movra   0x66             	MOVRA	_max_pwm_val
00004d   7667     clrr    0x67             	CLRR	(_max_pwm_val + 1)
00004e   5267     rlr     0x67             	RLR	(_max_pwm_val + 1)
00004f   3c00     movai   0                	MOVAI	0x00
000050   7e67     addra   0x67             	ADDRA	(_max_pwm_val + 1)
000051   7668     clrr    0x68             	CLRR	(_max_pwm_val + 2)
000052   7669     clrr    0x69             	CLRR	(_max_pwm_val + 3)
                                           ;;unsigned compare: left < lit(0xA3B=2619), size=4
                                           ;	.line	898; "MC32F7361.c"	if (adc_bat_val < 2619) // 6.0V
000053   3c00     movai   0                	MOVAI	0x00
000054   4865     rsubar  0x65             	RSUBAR	(_adc_bat_val + 3)
000055   e587     jbset   0x187, 0x2       	JBSET	PFLAG,2
000056   a061     goto    0x61             	GOTO	_00817_DS_
000057   3c00     movai   0                	MOVAI	0x00
000058   4864     rsubar  0x64             	RSUBAR	(_adc_bat_val + 2)
000059   e587     jbset   0x187, 0x2       	JBSET	PFLAG,2
00005a   a061     goto    0x61             	GOTO	_00817_DS_
00005b   3c0a     movai   0xa              	MOVAI	0x0a
00005c   4863     rsubar  0x63             	RSUBAR	(_adc_bat_val + 1)
00005d   e587     jbset   0x187, 0x2       	JBSET	PFLAG,2
00005e   a061     goto    0x61             	GOTO	_00817_DS_
00005f   3c3b     movai   0x3b             	MOVAI	0x3b
000060   4862     rsubar  0x62             	RSUBAR	_adc_bat_val
                                           _00817_DS_
000061   f187     jbclr   0x187, 0         	JBCLR	PFLAG,0
000062   a06f     goto    0x6f             	GOTO	_00719_DS_
                                           ;;genSkipc:3291: created from rifx:013B5EFC
                                           ;	.line	902; "MC32F7361.c"	tmp_bat_val = (adc_bat_val + 37);
000063   5862     movar   0x62             	MOVAR	_adc_bat_val
000064   561a     movra   0x1a             	MOVRA	r0x104A
000065   5863     movar   0x63             	MOVAR	(_adc_bat_val + 1)
000066   561b     movra   0x1b             	MOVRA	r0x104B
000067   3c25     movai   0x25             	MOVAI	0x25
000068   7c1a     addar   0x1a             	ADDAR	r0x104A
000069   5676     movra   0x76             	MOVRA	_tmp_bat_val
00006a   7677     clrr    0x77             	CLRR	(_tmp_bat_val + 1)
00006b   5277     rlr     0x77             	RLR	(_tmp_bat_val + 1)
00006c   581b     movar   0x1b             	MOVAR	r0x104B
00006d   7e77     addra   0x77             	ADDRA	(_tmp_bat_val + 1)
00006e   a11d     goto    0x11d            	GOTO	_00720_DS_
                                           ;;swapping arguments (AOP_TYPEs 1/3)
                                           ;;unsigned compare: left >= lit(0xB16=2838), size=4
                                           _00719_DS_
                                           ;	.line	904; "MC32F7361.c"	else if (adc_bat_val <= 2837) //  6.5V
00006f   3c00     movai   0                	MOVAI	0x00
000070   4865     rsubar  0x65             	RSUBAR	(_adc_bat_val + 3)
000071   e587     jbset   0x187, 0x2       	JBSET	PFLAG,2
000072   a07d     goto    0x7d             	GOTO	_00818_DS_
000073   3c00     movai   0                	MOVAI	0x00
000074   4864     rsubar  0x64             	RSUBAR	(_adc_bat_val + 2)
000075   e587     jbset   0x187, 0x2       	JBSET	PFLAG,2
000076   a07d     goto    0x7d             	GOTO	_00818_DS_
000077   3c0b     movai   0xb              	MOVAI	0x0b
000078   4863     rsubar  0x63             	RSUBAR	(_adc_bat_val + 1)
000079   e587     jbset   0x187, 0x2       	JBSET	PFLAG,2
00007a   a07d     goto    0x7d             	GOTO	_00818_DS_
00007b   3c16     movai   0x16             	MOVAI	0x16
00007c   4862     rsubar  0x62             	RSUBAR	_adc_bat_val
                                           _00818_DS_
00007d   f187     jbclr   0x187, 0         	JBCLR	PFLAG,0
00007e   a08b     goto    0x8b             	GOTO	_00716_DS_
                                           ;;genSkipc:3291: created from rifx:013B5EFC
                                           ;	.line	907; "MC32F7361.c"	tmp_bat_val = (adc_bat_val + 37);
00007f   5862     movar   0x62             	MOVAR	_adc_bat_val
000080   561a     movra   0x1a             	MOVRA	r0x104A
000081   5863     movar   0x63             	MOVAR	(_adc_bat_val + 1)
000082   561b     movra   0x1b             	MOVRA	r0x104B
000083   3c25     movai   0x25             	MOVAI	0x25
000084   7c1a     addar   0x1a             	ADDAR	r0x104A
000085   5676     movra   0x76             	MOVRA	_tmp_bat_val
000086   7677     clrr    0x77             	CLRR	(_tmp_bat_val + 1)
000087   5277     rlr     0x77             	RLR	(_tmp_bat_val + 1)
000088   581b     movar   0x1b             	MOVAR	r0x104B
000089   7e77     addra   0x77             	ADDRA	(_tmp_bat_val + 1)
00008a   a11d     goto    0x11d            	GOTO	_00720_DS_
                                           ;;swapping arguments (AOP_TYPEs 1/3)
                                           ;;unsigned compare: left >= lit(0xBF1=3057), size=4
                                           _00716_DS_
                                           ;	.line	909; "MC32F7361.c"	else if (adc_bat_val <= 3056) //  7.0V
00008b   3c00     movai   0                	MOVAI	0x00
00008c   4865     rsubar  0x65             	RSUBAR	(_adc_bat_val + 3)
00008d   e587     jbset   0x187, 0x2       	JBSET	PFLAG,2
00008e   a099     goto    0x99             	GOTO	_00819_DS_
00008f   3c00     movai   0                	MOVAI	0x00
000090   4864     rsubar  0x64             	RSUBAR	(_adc_bat_val + 2)
000091   e587     jbset   0x187, 0x2       	JBSET	PFLAG,2
000092   a099     goto    0x99             	GOTO	_00819_DS_
000093   3c0b     movai   0xb              	MOVAI	0x0b
000094   4863     rsubar  0x63             	RSUBAR	(_adc_bat_val + 1)
000095   e587     jbset   0x187, 0x2       	JBSET	PFLAG,2
000096   a099     goto    0x99             	GOTO	_00819_DS_
000097   3cf1     movai   0xf1             	MOVAI	0xf1
000098   4862     rsubar  0x62             	RSUBAR	_adc_bat_val
                                           _00819_DS_
000099   f187     jbclr   0x187, 0         	JBCLR	PFLAG,0
00009a   a0a7     goto    0xa7             	GOTO	_00713_DS_
                                           ;;genSkipc:3291: created from rifx:013B5EFC
                                           ;	.line	912; "MC32F7361.c"	tmp_bat_val = (adc_bat_val + 27);
00009b   5862     movar   0x62             	MOVAR	_adc_bat_val
00009c   561a     movra   0x1a             	MOVRA	r0x104A
00009d   5863     movar   0x63             	MOVAR	(_adc_bat_val + 1)
00009e   561b     movra   0x1b             	MOVRA	r0x104B
00009f   3c1b     movai   0x1b             	MOVAI	0x1b
0000a0   7c1a     addar   0x1a             	ADDAR	r0x104A
0000a1   5676     movra   0x76             	MOVRA	_tmp_bat_val
0000a2   7677     clrr    0x77             	CLRR	(_tmp_bat_val + 1)
0000a3   5277     rlr     0x77             	RLR	(_tmp_bat_val + 1)
0000a4   581b     movar   0x1b             	MOVAR	r0x104B
0000a5   7e77     addra   0x77             	ADDRA	(_tmp_bat_val + 1)
0000a6   a11d     goto    0x11d            	GOTO	_00720_DS_
                                           ;;swapping arguments (AOP_TYPEs 1/3)
                                           ;;unsigned compare: left >= lit(0xC75=3189), size=4
                                           _00713_DS_
                                           ;	.line	914; "MC32F7361.c"	else if (adc_bat_val <= 3188) //  7.3V
0000a7   3c00     movai   0                	MOVAI	0x00
0000a8   4865     rsubar  0x65             	RSUBAR	(_adc_bat_val + 3)
0000a9   e587     jbset   0x187, 0x2       	JBSET	PFLAG,2
0000aa   a0b5     goto    0xb5             	GOTO	_00820_DS_
0000ab   3c00     movai   0                	MOVAI	0x00
0000ac   4864     rsubar  0x64             	RSUBAR	(_adc_bat_val + 2)
0000ad   e587     jbset   0x187, 0x2       	JBSET	PFLAG,2
0000ae   a0b5     goto    0xb5             	GOTO	_00820_DS_
0000af   3c0c     movai   0xc              	MOVAI	0x0c
0000b0   4863     rsubar  0x63             	RSUBAR	(_adc_bat_val + 1)
0000b1   e587     jbset   0x187, 0x2       	JBSET	PFLAG,2
0000b2   a0b5     goto    0xb5             	GOTO	_00820_DS_
0000b3   3c75     movai   0x75             	MOVAI	0x75
0000b4   4862     rsubar  0x62             	RSUBAR	_adc_bat_val
                                           _00820_DS_
0000b5   f187     jbclr   0x187, 0         	JBCLR	PFLAG,0
0000b6   a0c3     goto    0xc3             	GOTO	_00710_DS_
                                           ;;genSkipc:3291: created from rifx:013B5EFC
                                           ;	.line	917; "MC32F7361.c"	tmp_bat_val = (adc_bat_val + 16);
0000b7   5862     movar   0x62             	MOVAR	_adc_bat_val
0000b8   561a     movra   0x1a             	MOVRA	r0x104A
0000b9   5863     movar   0x63             	MOVAR	(_adc_bat_val + 1)
0000ba   561b     movra   0x1b             	MOVRA	r0x104B
0000bb   3c10     movai   0x10             	MOVAI	0x10
0000bc   7c1a     addar   0x1a             	ADDAR	r0x104A
0000bd   5676     movra   0x76             	MOVRA	_tmp_bat_val
0000be   7677     clrr    0x77             	CLRR	(_tmp_bat_val + 1)
0000bf   5277     rlr     0x77             	RLR	(_tmp_bat_val + 1)
0000c0   581b     movar   0x1b             	MOVAR	r0x104B
0000c1   7e77     addra   0x77             	ADDRA	(_tmp_bat_val + 1)
0000c2   a11d     goto    0x11d            	GOTO	_00720_DS_
                                           ;;swapping arguments (AOP_TYPEs 1/3)
                                           ;;unsigned compare: left >= lit(0xCFF=3327), size=4
                                           _00710_DS_
                                           ;	.line	919; "MC32F7361.c"	else if (adc_bat_val <= 3326) //  7.62V
0000c3   3c00     movai   0                	MOVAI	0x00
0000c4   4865     rsubar  0x65             	RSUBAR	(_adc_bat_val + 3)
0000c5   e587     jbset   0x187, 0x2       	JBSET	PFLAG,2
0000c6   a0d1     goto    0xd1             	GOTO	_00821_DS_
0000c7   3c00     movai   0                	MOVAI	0x00
0000c8   4864     rsubar  0x64             	RSUBAR	(_adc_bat_val + 2)
0000c9   e587     jbset   0x187, 0x2       	JBSET	PFLAG,2
0000ca   a0d1     goto    0xd1             	GOTO	_00821_DS_
0000cb   3c0c     movai   0xc              	MOVAI	0x0c
0000cc   4863     rsubar  0x63             	RSUBAR	(_adc_bat_val + 1)
0000cd   e587     jbset   0x187, 0x2       	JBSET	PFLAG,2
0000ce   a0d1     goto    0xd1             	GOTO	_00821_DS_
0000cf   3cff     movai   0xff             	MOVAI	0xff
0000d0   4862     rsubar  0x62             	RSUBAR	_adc_bat_val
                                           _00821_DS_
0000d1   f187     jbclr   0x187, 0         	JBCLR	PFLAG,0
0000d2   a0d8     goto    0xd8             	GOTO	_00707_DS_
                                           ;;genSkipc:3291: created from rifx:013B5EFC
                                           ;	.line	922; "MC32F7361.c"	tmp_bat_val = (adc_bat_val + 0);
0000d3   5862     movar   0x62             	MOVAR	_adc_bat_val
0000d4   5676     movra   0x76             	MOVRA	_tmp_bat_val
0000d5   5863     movar   0x63             	MOVAR	(_adc_bat_val + 1)
0000d6   5677     movra   0x77             	MOVRA	(_tmp_bat_val + 1)
0000d7   a11d     goto    0x11d            	GOTO	_00720_DS_
                                           _00707_DS_
                                           ;	.line	935; "MC32F7361.c"	tmp_bat_val = (u32)adc_bat_val - ((u32)adc_bat_val * 157 / 1000 - 522);
0000d8   5862     movar   0x62             	MOVAR	_adc_bat_val
0000d9   5600     movra   0                	MOVRA	STK06
0000da   5863     movar   0x63             	MOVAR	(_adc_bat_val + 1)
0000db   5601     movra   0x1              	MOVRA	STK05
0000dc   5864     movar   0x64             	MOVAR	(_adc_bat_val + 2)
0000dd   5602     movra   0x2              	MOVRA	STK04
0000de   5865     movar   0x65             	MOVAR	(_adc_bat_val + 3)
0000df   5603     movra   0x3              	MOVRA	STK03
0000e0   3c9d     movai   0x9d             	MOVAI	0x9d
0000e1   5604     movra   0x4              	MOVRA	STK02
0000e2   3c00     movai   0                	MOVAI	0x00
0000e3   5605     movra   0x5              	MOVRA	STK01
0000e4   3c00     movai   0                	MOVAI	0x00
0000e5   5606     movra   0x6              	MOVRA	STK00
0000e6   3c00     movai   0                	MOVAI	0x00
0000e7   865c     call    0x65c            	CALL	__mullong
0000e8   561d     movra   0x1d             	MOVRA	r0x104C
0000e9   5806     movar   0x6              	MOVAR	STK00
0000ea   561c     movra   0x1c             	MOVRA	r0x104D
0000eb   5805     movar   0x5              	MOVAR	STK01
0000ec   561b     movra   0x1b             	MOVRA	r0x104B
0000ed   5804     movar   0x4              	MOVAR	STK02
0000ee   561a     movra   0x1a             	MOVRA	r0x104A
0000ef   3ce8     movai   0xe8             	MOVAI	0xe8
0000f0   5600     movra   0                	MOVRA	STK06
0000f1   3c03     movai   0x3              	MOVAI	0x03
0000f2   5601     movra   0x1              	MOVRA	STK05
0000f3   3c00     movai   0                	MOVAI	0x00
0000f4   5602     movra   0x2              	MOVRA	STK04
0000f5   3c00     movai   0                	MOVAI	0x00
0000f6   5603     movra   0x3              	MOVRA	STK03
0000f7   581a     movar   0x1a             	MOVAR	r0x104A
0000f8   5604     movra   0x4              	MOVRA	STK02
0000f9   581b     movar   0x1b             	MOVAR	r0x104B
0000fa   5605     movra   0x5              	MOVRA	STK01
0000fb   581c     movar   0x1c             	MOVAR	r0x104D
0000fc   5606     movra   0x6              	MOVRA	STK00
0000fd   581d     movar   0x1d             	MOVAR	r0x104C
0000fe   86e7     call    0x6e7            	CALL	__divulong
0000ff   561d     movra   0x1d             	MOVRA	r0x104C
000100   5806     movar   0x6              	MOVAR	STK00
000101   561c     movra   0x1c             	MOVRA	r0x104D
000102   5805     movar   0x5              	MOVAR	STK01
000103   561f     movra   0x1f             	MOVRA	r0x104F
000104   561b     movra   0x1b             	MOVRA	r0x104B
000105   5804     movar   0x4              	MOVAR	STK02
000106   561e     movra   0x1e             	MOVRA	r0x104E
000107   561a     movra   0x1a             	MOVRA	r0x104A
                                           ;;124	MOVAR	r0x104A
                                           ;;125	MOVAR	r0x104B
000108   3cf6     movai   0xf6             	MOVAI	0xf6
000109   7c1e     addar   0x1e             	ADDAR	r0x104E
00010a   561a     movra   0x1a             	MOVRA	r0x104A
00010b   3cfd     movai   0xfd             	MOVAI	0xfd
00010c   561b     movra   0x1b             	MOVRA	r0x104B
00010d   581f     movar   0x1f             	MOVAR	r0x104F
00010e   f187     jbclr   0x187, 0         	JBCLR	PFLAG,0
00010f   601f     jzar    0x1f             	JZAR	r0x104F
000110   7e1b     addra   0x1b             	ADDRA	r0x104B
000111   5862     movar   0x62             	MOVAR	_adc_bat_val
000112   561e     movra   0x1e             	MOVRA	r0x104E
000113   5863     movar   0x63             	MOVAR	(_adc_bat_val + 1)
000114   561f     movra   0x1f             	MOVRA	r0x104F
000115   581a     movar   0x1a             	MOVAR	r0x104A
000116   481e     rsubar  0x1e             	RSUBAR	r0x104E
000117   5676     movra   0x76             	MOVRA	_tmp_bat_val
000118   581b     movar   0x1b             	MOVAR	r0x104B
000119   e187     jbset   0x187, 0         	JBSET	PFLAG,0
00011a   641b     incar   0x1b             	INCAR	r0x104B
00011b   481f     rsubar  0x1f             	RSUBAR	r0x104F
00011c   5677     movra   0x77             	MOVRA	(_tmp_bat_val + 1)
                                           _00720_DS_
                                           ;	.line	943; "MC32F7361.c"	tmp_bat_val += 27; //  
00011d   3c1b     movai   0x1b             	MOVAI	0x1b
00011e   7e76     addra   0x76             	ADDRA	_tmp_bat_val
00011f   f187     jbclr   0x187, 0         	JBCLR	PFLAG,0
000120   6677     incr    0x77             	INCR	(_tmp_bat_val + 1)
                                           ;	.line	977; "MC32F7361.c"	tmp_val = max_pwm_val - (adc_charging_val * max_pwm_val * 94 / 147) / tmp_bat_val;
000121   5870     movar   0x70             	MOVAR	_adc_charging_val
000122   561a     movra   0x1a             	MOVRA	r0x104A
000123   5871     movar   0x71             	MOVAR	(_adc_charging_val + 1)
000124   561b     movra   0x1b             	MOVRA	r0x104B
000125   761e     clrr    0x1e             	CLRR	r0x104E
000126   761f     clrr    0x1f             	CLRR	r0x104F
000127   5866     movar   0x66             	MOVAR	_max_pwm_val
000128   5600     movra   0                	MOVRA	STK06
000129   5867     movar   0x67             	MOVAR	(_max_pwm_val + 1)
00012a   5601     movra   0x1              	MOVRA	STK05
00012b   5868     movar   0x68             	MOVAR	(_max_pwm_val + 2)
00012c   5602     movra   0x2              	MOVRA	STK04
00012d   5869     movar   0x69             	MOVAR	(_max_pwm_val + 3)
00012e   5603     movra   0x3              	MOVRA	STK03
00012f   581a     movar   0x1a             	MOVAR	r0x104A
000130   5604     movra   0x4              	MOVRA	STK02
000131   581b     movar   0x1b             	MOVAR	r0x104B
000132   5605     movra   0x5              	MOVRA	STK01
000133   3c00     movai   0                	MOVAI	0x00
000134   5606     movra   0x6              	MOVRA	STK00
000135   3c00     movai   0                	MOVAI	0x00
000136   865c     call    0x65c            	CALL	__mullong
000137   561f     movra   0x1f             	MOVRA	r0x104F
000138   5806     movar   0x6              	MOVAR	STK00
000139   561e     movra   0x1e             	MOVRA	r0x104E
00013a   5805     movar   0x5              	MOVAR	STK01
00013b   561b     movra   0x1b             	MOVRA	r0x104B
00013c   5804     movar   0x4              	MOVAR	STK02
00013d   561a     movra   0x1a             	MOVRA	r0x104A
00013e   581a     movar   0x1a             	MOVAR	r0x104A
00013f   5600     movra   0                	MOVRA	STK06
000140   581b     movar   0x1b             	MOVAR	r0x104B
000141   5601     movra   0x1              	MOVRA	STK05
000142   581e     movar   0x1e             	MOVAR	r0x104E
000143   5602     movra   0x2              	MOVRA	STK04
000144   581f     movar   0x1f             	MOVAR	r0x104F
000145   5603     movra   0x3              	MOVRA	STK03
000146   3c5e     movai   0x5e             	MOVAI	0x5e
000147   5604     movra   0x4              	MOVRA	STK02
000148   3c00     movai   0                	MOVAI	0x00
000149   5605     movra   0x5              	MOVRA	STK01
00014a   3c00     movai   0                	MOVAI	0x00
00014b   5606     movra   0x6              	MOVRA	STK00
00014c   3c00     movai   0                	MOVAI	0x00
00014d   865c     call    0x65c            	CALL	__mullong
00014e   561f     movra   0x1f             	MOVRA	r0x104F
00014f   5806     movar   0x6              	MOVAR	STK00
000150   561e     movra   0x1e             	MOVRA	r0x104E
000151   5805     movar   0x5              	MOVAR	STK01
000152   561b     movra   0x1b             	MOVRA	r0x104B
000153   5804     movar   0x4              	MOVAR	STK02
000154   561a     movra   0x1a             	MOVRA	r0x104A
000155   3c93     movai   0x93             	MOVAI	0x93
000156   5600     movra   0                	MOVRA	STK06
000157   3c00     movai   0                	MOVAI	0x00
000158   5601     movra   0x1              	MOVRA	STK05
000159   3c00     movai   0                	MOVAI	0x00
00015a   5602     movra   0x2              	MOVRA	STK04
00015b   3c00     movai   0                	MOVAI	0x00
00015c   5603     movra   0x3              	MOVRA	STK03
00015d   581a     movar   0x1a             	MOVAR	r0x104A
00015e   5604     movra   0x4              	MOVRA	STK02
00015f   581b     movar   0x1b             	MOVAR	r0x104B
000160   5605     movra   0x5              	MOVRA	STK01
000161   581e     movar   0x1e             	MOVAR	r0x104E
000162   5606     movra   0x6              	MOVRA	STK00
000163   581f     movar   0x1f             	MOVAR	r0x104F
000164   86e7     call    0x6e7            	CALL	__divulong
000165   561f     movra   0x1f             	MOVRA	r0x104F
000166   5806     movar   0x6              	MOVAR	STK00
000167   561e     movra   0x1e             	MOVRA	r0x104E
000168   5805     movar   0x5              	MOVAR	STK01
000169   561b     movra   0x1b             	MOVRA	r0x104B
00016a   5804     movar   0x4              	MOVAR	STK02
00016b   561a     movra   0x1a             	MOVRA	r0x104A
00016c   5876     movar   0x76             	MOVAR	_tmp_bat_val
00016d   5620     movra   0x20             	MOVRA	r0x1050
00016e   5877     movar   0x77             	MOVAR	(_tmp_bat_val + 1)
00016f   5621     movra   0x21             	MOVRA	r0x1051
000170   7622     clrr    0x22             	CLRR	r0x1052
000171   7623     clrr    0x23             	CLRR	r0x1053
000172   5820     movar   0x20             	MOVAR	r0x1050
000173   5600     movra   0                	MOVRA	STK06
000174   5821     movar   0x21             	MOVAR	r0x1051
000175   5601     movra   0x1              	MOVRA	STK05
000176   3c00     movai   0                	MOVAI	0x00
000177   5602     movra   0x2              	MOVRA	STK04
000178   3c00     movai   0                	MOVAI	0x00
000179   5603     movra   0x3              	MOVRA	STK03
00017a   581a     movar   0x1a             	MOVAR	r0x104A
00017b   5604     movra   0x4              	MOVRA	STK02
00017c   581b     movar   0x1b             	MOVAR	r0x104B
00017d   5605     movra   0x5              	MOVRA	STK01
00017e   581e     movar   0x1e             	MOVAR	r0x104E
00017f   5606     movra   0x6              	MOVRA	STK00
000180   581f     movar   0x1f             	MOVAR	r0x104F
000181   86e7     call    0x6e7            	CALL	__divulong
000182   561f     movra   0x1f             	MOVRA	r0x104F
000183   5806     movar   0x6              	MOVAR	STK00
000184   561e     movra   0x1e             	MOVRA	r0x104E
000185   5805     movar   0x5              	MOVAR	STK01
000186   5623     movra   0x23             	MOVRA	r0x1053
000187   561b     movra   0x1b             	MOVRA	r0x104B
000188   5804     movar   0x4              	MOVAR	STK02
000189   5622     movra   0x22             	MOVRA	r0x1052
00018a   561a     movra   0x1a             	MOVRA	r0x104A
00018b   5866     movar   0x66             	MOVAR	_max_pwm_val
00018c   5620     movra   0x20             	MOVRA	r0x1050
00018d   5867     movar   0x67             	MOVAR	(_max_pwm_val + 1)
00018e   5621     movra   0x21             	MOVRA	r0x1051
                                           ;;121	MOVAR	r0x104A
                                           ;;122	MOVAR	r0x104B
00018f   5822     movar   0x22             	MOVAR	r0x1052
000190   4820     rsubar  0x20             	RSUBAR	r0x1050
000191   5674     movra   0x74             	MOVRA	_tmp_val
000192   5823     movar   0x23             	MOVAR	r0x1053
000193   e187     jbset   0x187, 0         	JBSET	PFLAG,0
000194   6423     incar   0x23             	INCAR	r0x1053
000195   4821     rsubar  0x21             	RSUBAR	r0x1051
000196   5675     movra   0x75             	MOVRA	(_tmp_val + 1)
                                           ;	.line	979; "MC32F7361.c"	if (tmp_val >= max_pwm_val)
000197   5874     movar   0x74             	MOVAR	_tmp_val
000198   561a     movra   0x1a             	MOVRA	r0x104A
000199   5875     movar   0x75             	MOVAR	(_tmp_val + 1)
00019a   561b     movra   0x1b             	MOVRA	r0x104B
00019b   761e     clrr    0x1e             	CLRR	r0x104E
00019c   761f     clrr    0x1f             	CLRR	r0x104F
00019d   5869     movar   0x69             	MOVAR	(_max_pwm_val + 3)
00019e   481f     rsubar  0x1f             	RSUBAR	r0x104F
00019f   e587     jbset   0x187, 0x2       	JBSET	PFLAG,2
0001a0   a1ab     goto    0x1ab            	GOTO	_00822_DS_
0001a1   5868     movar   0x68             	MOVAR	(_max_pwm_val + 2)
0001a2   481e     rsubar  0x1e             	RSUBAR	r0x104E
0001a3   e587     jbset   0x187, 0x2       	JBSET	PFLAG,2
0001a4   a1ab     goto    0x1ab            	GOTO	_00822_DS_
0001a5   5867     movar   0x67             	MOVAR	(_max_pwm_val + 1)
0001a6   481b     rsubar  0x1b             	RSUBAR	r0x104B
0001a7   e587     jbset   0x187, 0x2       	JBSET	PFLAG,2
0001a8   a1ab     goto    0x1ab            	GOTO	_00822_DS_
0001a9   5866     movar   0x66             	MOVAR	_max_pwm_val
0001aa   481a     rsubar  0x1a             	RSUBAR	r0x104A
                                           _00822_DS_
0001ab   e187     jbset   0x187, 0         	JBSET	PFLAG,0
0001ac   a1af     goto    0x1af            	GOTO	_00722_DS_
                                           ;;genSkipc:3291: created from rifx:013B5EFC
                                           ;	.line	982; "MC32F7361.c"	tmp_val = 0;
0001ad   7674     clrr    0x74             	CLRR	_tmp_val
0001ae   7675     clrr    0x75             	CLRR	(_tmp_val + 1)
                                           _00722_DS_
                                           ;	.line	986; "MC32F7361.c"	tmp_val_cnt++;
0001af   667b     incr    0x7b             	INCR	_tmp_val_cnt
                                           ;;unsigned compare: left < lit(0x8=8), size=1
                                           ;	.line	987; "MC32F7361.c"	if (tmp_val_cnt >= 8)
0001b0   3c08     movai   0x8              	MOVAI	0x08
0001b1   487b     rsubar  0x7b             	RSUBAR	_tmp_val_cnt
0001b2   e187     jbset   0x187, 0         	JBSET	PFLAG,0
0001b3   a1b5     goto    0x1b5            	GOTO	_00724_DS_
                                           ;;genSkipc:3291: created from rifx:013B5EFC
                                           ;	.line	988; "MC32F7361.c"	tmp_val_cnt = 0;
0001b4   767b     clrr    0x7b             	CLRR	_tmp_val_cnt
                                           _00724_DS_
                                           ;	.line	989; "MC32F7361.c"	tmp_val_l[tmp_val_cnt] += tmp_val;
0001b5   d187     bclr    0x187, 0         	BCLR	PFLAG,0
0001b6   507b     rlar    0x7b             	RLAR	_tmp_val_cnt
0001b7   561a     movra   0x1a             	MOVRA	r0x104A
0001b8   581a     movar   0x1a             	MOVAR	r0x104A
0001b9   3f3a     addai   0x3a             	ADDAI	(_tmp_val_l + 0)
0001ba   561a     movra   0x1a             	MOVRA	r0x104A
0001bb   3c00     movai   0                	MOVAI	high (_tmp_val_l + 0)
0001bc   f187     jbclr   0x187, 0         	JBCLR	PFLAG,0
0001bd   3f01     addai   0x1              	ADDAI	0x01
0001be   561b     movra   0x1b             	MOVRA	r0x104B
0001bf   d187     bclr    0x187, 0         	BCLR	PFLAG,0
0001c0   507b     rlar    0x7b             	RLAR	_tmp_val_cnt
0001c1   561e     movra   0x1e             	MOVRA	r0x104E
0001c2   581e     movar   0x1e             	MOVAR	r0x104E
0001c3   3f3a     addai   0x3a             	ADDAI	(_tmp_val_l + 0)
0001c4   561e     movra   0x1e             	MOVRA	r0x104E
0001c5   3c00     movai   0                	MOVAI	high (_tmp_val_l + 0)
0001c6   f187     jbclr   0x187, 0         	JBCLR	PFLAG,0
0001c7   3f01     addai   0x1              	ADDAI	0x01
0001c8   561f     movra   0x1f             	MOVRA	r0x104F
0001c9   581e     movar   0x1e             	MOVAR	r0x104E
0001ca   5784     movra   0x184            	MOVRA	FSR0
0001cb   581f     movar   0x1f             	MOVAR	r0x104F
0001cc   5785     movra   0x185            	MOVRA	FSR1
0001cd   5982     movar   0x182            	MOVAR	INDF2
0001ce   5620     movra   0x20             	MOVRA	r0x1050
0001cf   6784     incr    0x184            	INCR	FSR0
0001d0   f587     jbclr   0x187, 0x2       	JBCLR	PFLAG,2
0001d1   6785     incr    0x185            	INCR	FSR1
0001d2   5982     movar   0x182            	MOVAR	INDF2
0001d3   561f     movra   0x1f             	MOVRA	r0x104F
0001d4   5621     movra   0x21             	MOVRA	r0x1051
0001d5   5874     movar   0x74             	MOVAR	_tmp_val
0001d6   7c20     addar   0x20             	ADDAR	r0x1050
0001d7   561e     movra   0x1e             	MOVRA	r0x104E
                                           ;;123	MOVAR	r0x1051
0001d8   5875     movar   0x75             	MOVAR	(_tmp_val + 1)
0001d9   f187     jbclr   0x187, 0         	JBCLR	PFLAG,0
0001da   6075     jzar    0x75             	JZAR	(_tmp_val + 1)
0001db   7e1f     addra   0x1f             	ADDRA	r0x104F
0001dc   581a     movar   0x1a             	MOVAR	r0x104A
0001dd   5784     movra   0x184            	MOVRA	FSR0
0001de   581b     movar   0x1b             	MOVAR	r0x104B
0001df   5785     movra   0x185            	MOVRA	FSR1
0001e0   581e     movar   0x1e             	MOVAR	r0x104E
0001e1   5782     movra   0x182            	MOVRA	INDF2
0001e2   6784     incr    0x184            	INCR	FSR0
0001e3   f587     jbclr   0x187, 0x2       	JBCLR	PFLAG,2
0001e4   6785     incr    0x185            	INCR	FSR1
0001e5   581f     movar   0x1f             	MOVAR	r0x104F
0001e6   5782     movra   0x182            	MOVRA	INDF2
                                           ;	.line	990; "MC32F7361.c"	tmp_val_l[tmp_val_cnt] >>= 1;
0001e7   d187     bclr    0x187, 0         	BCLR	PFLAG,0
0001e8   507b     rlar    0x7b             	RLAR	_tmp_val_cnt
0001e9   561a     movra   0x1a             	MOVRA	r0x104A
0001ea   581a     movar   0x1a             	MOVAR	r0x104A
0001eb   3f3a     addai   0x3a             	ADDAI	(_tmp_val_l + 0)
0001ec   561a     movra   0x1a             	MOVRA	r0x104A
0001ed   3c00     movai   0                	MOVAI	high (_tmp_val_l + 0)
0001ee   f187     jbclr   0x187, 0         	JBCLR	PFLAG,0
0001ef   3f01     addai   0x1              	ADDAI	0x01
0001f0   561b     movra   0x1b             	MOVRA	r0x104B
0001f1   d187     bclr    0x187, 0         	BCLR	PFLAG,0
0001f2   507b     rlar    0x7b             	RLAR	_tmp_val_cnt
0001f3   561e     movra   0x1e             	MOVRA	r0x104E
0001f4   581e     movar   0x1e             	MOVAR	r0x104E
0001f5   3f3a     addai   0x3a             	ADDAI	(_tmp_val_l + 0)
0001f6   561e     movra   0x1e             	MOVRA	r0x104E
0001f7   3c00     movai   0                	MOVAI	high (_tmp_val_l + 0)
0001f8   f187     jbclr   0x187, 0         	JBCLR	PFLAG,0
0001f9   3f01     addai   0x1              	ADDAI	0x01
0001fa   561f     movra   0x1f             	MOVRA	r0x104F
0001fb   581e     movar   0x1e             	MOVAR	r0x104E
0001fc   5784     movra   0x184            	MOVRA	FSR0
0001fd   581f     movar   0x1f             	MOVAR	r0x104F
0001fe   5785     movra   0x185            	MOVRA	FSR1
0001ff   5982     movar   0x182            	MOVAR	INDF2
000200   5620     movra   0x20             	MOVRA	r0x1050
000201   6784     incr    0x184            	INCR	FSR0
000202   f587     jbclr   0x187, 0x2       	JBCLR	PFLAG,2
000203   6785     incr    0x185            	INCR	FSR1
000204   5982     movar   0x182            	MOVAR	INDF2
000205   5621     movra   0x21             	MOVRA	r0x1051
                                           ;;shiftRight_Left2ResultLit:5339: shCount=1, size=2, sign=0, same=0, offr=0
000206   d187     bclr    0x187, 0         	BCLR	PFLAG,0
000207   4c21     rrar    0x21             	RRAR	r0x1051
000208   561f     movra   0x1f             	MOVRA	r0x104F
000209   4c20     rrar    0x20             	RRAR	r0x1050
00020a   561e     movra   0x1e             	MOVRA	r0x104E
00020b   581a     movar   0x1a             	MOVAR	r0x104A
00020c   5784     movra   0x184            	MOVRA	FSR0
00020d   581b     movar   0x1b             	MOVAR	r0x104B
00020e   5785     movra   0x185            	MOVRA	FSR1
00020f   581e     movar   0x1e             	MOVAR	r0x104E
000210   5782     movra   0x182            	MOVRA	INDF2
000211   6784     incr    0x184            	INCR	FSR0
000212   f587     jbclr   0x187, 0x2       	JBCLR	PFLAG,2
000213   6785     incr    0x185            	INCR	FSR1
000214   581f     movar   0x1f             	MOVAR	r0x104F
000215   5782     movra   0x182            	MOVRA	INDF2
                                           ;	.line	991; "MC32F7361.c"	tmp_val = 0;
000216   7674     clrr    0x74             	CLRR	_tmp_val
000217   7675     clrr    0x75             	CLRR	(_tmp_val + 1)
                                           ;	.line	992; "MC32F7361.c"	tmp_val += tmp_val_l[0];
000218   583a     movar   0x3a             	MOVAR	(_tmp_val_l + 0)
000219   561a     movra   0x1a             	MOVRA	r0x104A
00021a   583b     movar   0x3b             	MOVAR	(_tmp_val_l + 1)
00021b   561b     movra   0x1b             	MOVRA	r0x104B
00021c   581a     movar   0x1a             	MOVAR	r0x104A
00021d   7e74     addra   0x74             	ADDRA	_tmp_val
00021e   581b     movar   0x1b             	MOVAR	r0x104B
00021f   f187     jbclr   0x187, 0         	JBCLR	PFLAG,0
000220   601b     jzar    0x1b             	JZAR	r0x104B
000221   7e75     addra   0x75             	ADDRA	(_tmp_val + 1)
                                           ;	.line	993; "MC32F7361.c"	tmp_val += tmp_val_l[1];
000222   583c     movar   0x3c             	MOVAR	(_tmp_val_l + 2)
000223   561a     movra   0x1a             	MOVRA	r0x104A
000224   583d     movar   0x3d             	MOVAR	(_tmp_val_l + 3)
000225   561b     movra   0x1b             	MOVRA	r0x104B
000226   581a     movar   0x1a             	MOVAR	r0x104A
000227   7e74     addra   0x74             	ADDRA	_tmp_val
000228   581b     movar   0x1b             	MOVAR	r0x104B
000229   f187     jbclr   0x187, 0         	JBCLR	PFLAG,0
00022a   601b     jzar    0x1b             	JZAR	r0x104B
00022b   7e75     addra   0x75             	ADDRA	(_tmp_val + 1)
                                           ;	.line	994; "MC32F7361.c"	tmp_val += tmp_val_l[2];
00022c   583e     movar   0x3e             	MOVAR	(_tmp_val_l + 4)
00022d   561a     movra   0x1a             	MOVRA	r0x104A
00022e   583f     movar   0x3f             	MOVAR	(_tmp_val_l + 5)
00022f   561b     movra   0x1b             	MOVRA	r0x104B
000230   581a     movar   0x1a             	MOVAR	r0x104A
000231   7e74     addra   0x74             	ADDRA	_tmp_val
000232   581b     movar   0x1b             	MOVAR	r0x104B
000233   f187     jbclr   0x187, 0         	JBCLR	PFLAG,0
000234   601b     jzar    0x1b             	JZAR	r0x104B
000235   7e75     addra   0x75             	ADDRA	(_tmp_val + 1)
                                           ;	.line	995; "MC32F7361.c"	tmp_val += tmp_val_l[3];
000236   5840     movar   0x40             	MOVAR	(_tmp_val_l + 6)
000237   561a     movra   0x1a             	MOVRA	r0x104A
000238   5841     movar   0x41             	MOVAR	(_tmp_val_l + 7)
000239   561b     movra   0x1b             	MOVRA	r0x104B
00023a   581a     movar   0x1a             	MOVAR	r0x104A
00023b   7e74     addra   0x74             	ADDRA	_tmp_val
00023c   581b     movar   0x1b             	MOVAR	r0x104B
00023d   f187     jbclr   0x187, 0         	JBCLR	PFLAG,0
00023e   601b     jzar    0x1b             	JZAR	r0x104B
00023f   7e75     addra   0x75             	ADDRA	(_tmp_val + 1)
                                           ;	.line	996; "MC32F7361.c"	tmp_val += tmp_val_l[4];
000240   5842     movar   0x42             	MOVAR	(_tmp_val_l + 8)
000241   561a     movra   0x1a             	MOVRA	r0x104A
000242   5843     movar   0x43             	MOVAR	(_tmp_val_l + 9)
000243   561b     movra   0x1b             	MOVRA	r0x104B
000244   581a     movar   0x1a             	MOVAR	r0x104A
000245   7e74     addra   0x74             	ADDRA	_tmp_val
000246   581b     movar   0x1b             	MOVAR	r0x104B
000247   f187     jbclr   0x187, 0         	JBCLR	PFLAG,0
000248   601b     jzar    0x1b             	JZAR	r0x104B
000249   7e75     addra   0x75             	ADDRA	(_tmp_val + 1)
                                           ;	.line	997; "MC32F7361.c"	tmp_val += tmp_val_l[5];
00024a   5844     movar   0x44             	MOVAR	(_tmp_val_l + 10)
00024b   561a     movra   0x1a             	MOVRA	r0x104A
00024c   5845     movar   0x45             	MOVAR	(_tmp_val_l + 11)
00024d   561b     movra   0x1b             	MOVRA	r0x104B
00024e   581a     movar   0x1a             	MOVAR	r0x104A
00024f   7e74     addra   0x74             	ADDRA	_tmp_val
000250   581b     movar   0x1b             	MOVAR	r0x104B
000251   f187     jbclr   0x187, 0         	JBCLR	PFLAG,0
000252   601b     jzar    0x1b             	JZAR	r0x104B
000253   7e75     addra   0x75             	ADDRA	(_tmp_val + 1)
                                           ;	.line	998; "MC32F7361.c"	tmp_val += tmp_val_l[6];
000254   5846     movar   0x46             	MOVAR	(_tmp_val_l + 12)
000255   561a     movra   0x1a             	MOVRA	r0x104A
000256   5847     movar   0x47             	MOVAR	(_tmp_val_l + 13)
000257   561b     movra   0x1b             	MOVRA	r0x104B
000258   581a     movar   0x1a             	MOVAR	r0x104A
000259   7e74     addra   0x74             	ADDRA	_tmp_val
00025a   581b     movar   0x1b             	MOVAR	r0x104B
00025b   f187     jbclr   0x187, 0         	JBCLR	PFLAG,0
00025c   601b     jzar    0x1b             	JZAR	r0x104B
00025d   7e75     addra   0x75             	ADDRA	(_tmp_val + 1)
                                           ;	.line	999; "MC32F7361.c"	tmp_val += tmp_val_l[7];
00025e   5848     movar   0x48             	MOVAR	(_tmp_val_l + 14)
00025f   561a     movra   0x1a             	MOVRA	r0x104A
000260   5849     movar   0x49             	MOVAR	(_tmp_val_l + 15)
000261   561b     movra   0x1b             	MOVRA	r0x104B
000262   581a     movar   0x1a             	MOVAR	r0x104A
000263   7e74     addra   0x74             	ADDRA	_tmp_val
000264   581b     movar   0x1b             	MOVAR	r0x104B
000265   f187     jbclr   0x187, 0         	JBCLR	PFLAG,0
000266   601b     jzar    0x1b             	JZAR	r0x104B
000267   7e75     addra   0x75             	ADDRA	(_tmp_val + 1)
                                           ;;shiftRight_Left2ResultLit:5339: shCount=1, size=2, sign=0, same=1, offr=0
                                           ;	.line	1000; "MC32F7361.c"	tmp_val >>= 3;
000268   d187     bclr    0x187, 0         	BCLR	PFLAG,0
000269   4e75     rrr     0x75             	RRR	(_tmp_val + 1)
00026a   4e74     rrr     0x74             	RRR	_tmp_val
                                           ;;shiftRight_Left2ResultLit:5339: shCount=1, size=2, sign=0, same=1, offr=0
00026b   d187     bclr    0x187, 0         	BCLR	PFLAG,0
00026c   4e75     rrr     0x75             	RRR	(_tmp_val + 1)
00026d   4e74     rrr     0x74             	RRR	_tmp_val
                                           ;;shiftRight_Left2ResultLit:5339: shCount=1, size=2, sign=0, same=1, offr=0
00026e   d187     bclr    0x187, 0         	BCLR	PFLAG,0
00026f   4e75     rrr     0x75             	RRR	(_tmp_val + 1)
000270   4e74     rrr     0x74             	RRR	_tmp_val
                                           ;	.line	1002; "MC32F7361.c"	if (tmp_val > last_pwm_val)
000271   5875     movar   0x75             	MOVAR	(_tmp_val + 1)
000272   4873     rsubar  0x73             	RSUBAR	(_last_pwm_val + 1)
000273   e587     jbset   0x187, 0x2       	JBSET	PFLAG,2
000274   a277     goto    0x277            	GOTO	_00824_DS_
000275   5874     movar   0x74             	MOVAR	_tmp_val
000276   4872     rsubar  0x72             	RSUBAR	_last_pwm_val
                                           _00824_DS_
000277   f187     jbclr   0x187, 0         	JBCLR	PFLAG,0
000278   a27d     goto    0x27d            	GOTO	_00728_DS_
                                           ;;genSkipc:3291: created from rifx:013B5EFC
                                           ;	.line	1004; "MC32F7361.c"	last_pwm_val = last_pwm_val + 1;
000279   6672     incr    0x72             	INCR	_last_pwm_val
00027a   f587     jbclr   0x187, 0x2       	JBCLR	PFLAG,2
00027b   6673     incr    0x73             	INCR	(_last_pwm_val + 1)
00027c   a289     goto    0x289            	GOTO	_00729_DS_
                                           _00728_DS_
                                           ;	.line	1006; "MC32F7361.c"	else if (tmp_val < last_pwm_val)
00027d   5873     movar   0x73             	MOVAR	(_last_pwm_val + 1)
00027e   4875     rsubar  0x75             	RSUBAR	(_tmp_val + 1)
00027f   e587     jbset   0x187, 0x2       	JBSET	PFLAG,2
000280   a283     goto    0x283            	GOTO	_00825_DS_
000281   5872     movar   0x72             	MOVAR	_last_pwm_val
000282   4874     rsubar  0x74             	RSUBAR	_tmp_val
                                           _00825_DS_
000283   f187     jbclr   0x187, 0         	JBCLR	PFLAG,0
000284   a289     goto    0x289            	GOTO	_00729_DS_
                                           ;;genSkipc:3291: created from rifx:013B5EFC
                                           ;	.line	1008; "MC32F7361.c"	last_pwm_val = last_pwm_val - 1;
000285   3cff     movai   0xff             	MOVAI	0xff
000286   7e72     addra   0x72             	ADDRA	_last_pwm_val
000287   e187     jbset   0x187, 0         	JBSET	PFLAG,0
000288   6e73     decr    0x73             	DECR	(_last_pwm_val + 1)
                                           _00729_DS_
                                           ;	.line	1011; "MC32F7361.c"	T2DATA = last_pwm_val;
000289   5872     movar   0x72             	MOVAR	_last_pwm_val
00028a   57a3     movra   0x1a3            	MOVRA	_T2DATA
00028b   a298     goto    0x298            	GOTO	_00740_DS_
                                           _00739_DS_
                                           ;	.line	1015; "MC32F7361.c"	if (FLAG_DURING_CHARGING_BAT_IS_NULL)
00028c   ee80     jbset   0x80, 0x7        	JBSET	_flag1,7
00028d   a298     goto    0x298            	GOTO	_00740_DS_
                                           ;	.line	1018; "MC32F7361.c"	LED_FULL_CHARGE_ON();
00028e   d790     bclr    0x190, 0x3       	BCLR	_IOP0bits,3
                                           ;	.line	1019; "MC32F7361.c"	delay_ms(200);
00028f   3cc8     movai   0xc8             	MOVAI	0xc8
000290   5606     movra   0x6              	MOVRA	STK00
000291   3c00     movai   0                	MOVAI	0x00
000292   863c     call    0x63c            	CALL	_delay_ms
                                           ;	.line	1020; "MC32F7361.c"	LED_FULL_CHARGE_OFF();
000293   c790     bset    0x190, 0x3       	BSET	_IOP0bits,3
                                           ;	.line	1021; "MC32F7361.c"	delay_ms(200);
000294   3cc8     movai   0xc8             	MOVAI	0xc8
000295   5606     movra   0x6              	MOVRA	STK00
000296   3c00     movai   0                	MOVAI	0x00
000297   863c     call    0x63c            	CALL	_delay_ms
                                           _00740_DS_
                                           ;	.line	1025; "MC32F7361.c"	if (FLAG_DURING_CHARGING_BAT_IS_NULL == 0) // 
000298   fe80     jbclr   0x80, 0x7        	JBCLR	_flag1,7
000299   a29b     goto    0x29b            	GOTO	_00742_DS_
                                           ;	.line	1026; "MC32F7361.c"	low_power_scan_handle();
00029a   829e     call    0x29e            	CALL	_low_power_scan_handle
                                           _00742_DS_
                                           ;	.line	1033; "MC32F7361.c"	__endasm;
                                           	;
00029b   000e     clrwdt                   	CLRWDT;
                                           	
00029c   a03e     goto    0x3e             	GOTO	_00744_DS_
                                           ;	.line	1036; "MC32F7361.c"	}
00029d   000c     return                   	RETURN	
                                           ; exit point of _main
                                           
                                           ;***
                                           ;  pBlock Stats: dbName = C
                                           ;***
                                           ;entry:  _low_power_scan_handle	;Function start
                                           ; 2 exit points
                                           ;has an exit
                                           ;functions called:
                                           ;   _CLR_RAM
                                           ;   _adc_sel_pin
                                           ;   _adc_get_val_once
                                           ;   _adc_sel_pin
                                           ;   _adc_get_val
                                           ;   _Sys_Init
                                           ;   _CLR_RAM
                                           ;   _adc_sel_pin
                                           ;   _adc_get_val_once
                                           ;   _adc_sel_pin
                                           ;   _adc_get_val
                                           ;   _Sys_Init
                                           ;1 compiler assigned register :
                                           ;   STK00
                                           ;; Starting pCode block
                                           _low_power_scan_handle	;Function start
                                           ; 2 exit points
                                           ;	.line	693; "MC32F7361.c"	if (FLAG_IS_DEVICE_OPEN)
00029e   e080     jbset   0x80, 0          	JBSET	_flag1,0
00029f   a2a1     goto    0x2a1            	GOTO	_00655_DS_
                                           ;	.line	696; "MC32F7361.c"	return;
0002a0   a2f9     goto    0x2f9            	GOTO	_00671_DS_
                                           _00655_DS_
                                           ;	.line	701; "MC32F7361.c"	if (FLAG_IS_IN_CHARGING)
0002a1   e480     jbset   0x80, 0x2        	JBSET	_flag1,2
0002a2   a2a4     goto    0x2a4            	GOTO	_00658_DS_
                                           ;	.line	704; "MC32F7361.c"	return;
0002a3   a2f9     goto    0x2f9            	GOTO	_00671_DS_
                                           _00658_DS_
                                           ;	.line	708; "MC32F7361.c"	GIE = 0; // 
0002a4   df88     bclr    0x188, 0x7       	BCLR	_MCRbits,7
                                           ;	.line	711; "MC32F7361.c"	T0EN = 0; // PWM
0002a5   df98     bclr    0x198, 0x7       	BCLR	_T0CRbits,7
                                           ;	.line	712; "MC32F7361.c"	T1EN = 0;
0002a6   df9c     bclr    0x19c, 0x7       	BCLR	_T1CRbits,7
                                           ;	.line	713; "MC32F7361.c"	T2EN = 0;
0002a7   dfa0     bclr    0x1a0, 0x7       	BCLR	_T2CRbits,7
                                           ;	.line	716; "MC32F7361.c"	PWM0EC = 0;
0002a8   dd98     bclr    0x198, 0x6       	BCLR	_T0CRbits,6
                                           ;	.line	717; "MC32F7361.c"	PWM1EC = 0;
0002a9   dd9c     bclr    0x19c, 0x6       	BCLR	_T1CRbits,6
                                           ;	.line	718; "MC32F7361.c"	PWM2EC = 0;
0002aa   dda0     bclr    0x1a0, 0x6       	BCLR	_T2CRbits,6
                                           ;	.line	719; "MC32F7361.c"	T2DATA = 0;
0002ab   77a3     clrr    0x1a3            	CLRR	_T2DATA
                                           ;	.line	720; "MC32F7361.c"	ADEN = 0; // ad
0002ac   d1b0     bclr    0x1b0, 0         	BCLR	_ADCR0bits,0
                                           ;	.line	723; "MC32F7361.c"	IOP0 = 0x18;   // io
0002ad   3c18     movai   0x18             	MOVAI	0x18
0002ae   5790     movra   0x190            	MOVRA	_IOP0
                                           ;	.line	724; "MC32F7361.c"	OEP0 = 0xFF;   // io 1:out  0:in
0002af   3cff     movai   0xff             	MOVAI	0xff
0002b0   5791     movra   0x191            	MOVRA	_OEP0
                                           ;	.line	725; "MC32F7361.c"	PUP0 = 0x00;   // io   1:enable  0:disable
0002b1   7792     clrr    0x192            	CLRR	_PUP0
                                           ;	.line	726; "MC32F7361.c"	PDP0 = 0x00;   // io   1:enable  0:disable
0002b2   7793     clrr    0x193            	CLRR	_PDP0
                                           ;	.line	727; "MC32F7361.c"	P0ADCR = 0x00; //     1disable
0002b3   77b6     clrr    0x1b6            	CLRR	_P0ADCR
                                           ;	.line	728; "MC32F7361.c"	IOP1 = 0x10;   // io
0002b4   3c10     movai   0x10             	MOVAI	0x10
0002b5   5794     movra   0x194            	MOVRA	_IOP1
                                           ;	.line	729; "MC32F7361.c"	OEP1 = 0xFF;   // io 1:out  0:in
0002b6   3cff     movai   0xff             	MOVAI	0xff
0002b7   5795     movra   0x195            	MOVRA	_OEP1
                                           ;	.line	730; "MC32F7361.c"	PUP1 = 0x00;   // io   1:enable  0:disable
0002b8   7796     clrr    0x196            	CLRR	_PUP1
                                           ;	.line	731; "MC32F7361.c"	PDP1 = 0x00;   // io   1:enable  0:disable
0002b9   7797     clrr    0x197            	CLRR	_PDP1
                                           ;	.line	732; "MC32F7361.c"	P1ADCR = 0x00; //     1disable
0002ba   77b7     clrr    0x1b7            	CLRR	_P1ADCR
                                           ;	.line	741; "MC32F7361.c"	P01PU = 1;
0002bb   c392     bset    0x192, 0x1       	BSET	_PUP0bits,1
                                           ;	.line	742; "MC32F7361.c"	P01OE = 0;
0002bc   d391     bclr    0x191, 0x1       	BCLR	_OEP0bits,1
                                           ;	.line	743; "MC32F7361.c"	P01KE = 1;
0002bd   c38d     bset    0x18d, 0x1       	BSET	_P0KBCRbits,1
                                           ;	.line	744; "MC32F7361.c"	KBIF = 0;
0002be   d98b     bclr    0x18b, 0x4       	BCLR	_INTFbits,4
                                           ;	.line	745; "MC32F7361.c"	KBIE = 1;
0002bf   c98a     bset    0x18a, 0x4       	BSET	_INTEbits,4
                                           ;	.line	748; "MC32F7361.c"	P00PD = 1;
0002c0   c193     bset    0x193, 0         	BSET	_PDP0bits,0
                                           ;	.line	749; "MC32F7361.c"	P00OE = 0;
0002c1   d191     bclr    0x191, 0         	BCLR	_OEP0bits,0
                                           ;	.line	750; "MC32F7361.c"	P00KE = 1;
0002c2   c18d     bset    0x18d, 0         	BSET	_P0KBCRbits,0
                                           ;	.line	752; "MC32F7361.c"	HFEN = 0; // 
0002c3   d1ae     bclr    0x1ae, 0         	BCLR	_OSCMRbits,0
                                           ;	.line	753; "MC32F7361.c"	LFEN = 1;
0002c4   c3ae     bset    0x1ae, 0x1       	BSET	_OSCMRbits,1
                                           ;	.line	756; "MC32F7361.c"	Nop();
0002c5   0000     nop                      	nop	
                                           ;	.line	757; "MC32F7361.c"	Nop();
0002c6   0000     nop                      	nop	
                                           ;	.line	758; "MC32F7361.c"	Stop();
0002c7   000b     stop                     	stop	
                                           ;	.line	759; "MC32F7361.c"	Nop();
0002c8   0000     nop                      	nop	
                                           ;	.line	760; "MC32F7361.c"	Nop();
0002c9   0000     nop                      	nop	
                                           ;	.line	762; "MC32F7361.c"	P01KE = 0; //  /
0002ca   d38d     bclr    0x18d, 0x1       	BCLR	_P0KBCRbits,1
                                           ;	.line	763; "MC32F7361.c"	P00KE =0 ; // 
0002cb   d18d     bclr    0x18d, 0         	BCLR	_P0KBCRbits,0
                                           ;	.line	764; "MC32F7361.c"	KBIE = 0; // 
0002cc   d98a     bclr    0x18a, 0x4       	BCLR	_INTEbits,4
                                           ;	.line	765; "MC32F7361.c"	KBIF = 0;
0002cd   d98b     bclr    0x18b, 0x4       	BCLR	_INTFbits,4
                                           ;	.line	767; "MC32F7361.c"	CLR_RAM();
0002ce   8630     call    0x630            	CALL	_CLR_RAM
                                           ;	.line	770; "MC32F7361.c"	P00PU = 0; // 
0002cf   d192     bclr    0x192, 0         	BCLR	_PUP0bits,0
                                           ;	.line	771; "MC32F7361.c"	P00PD = 0;
0002d0   d193     bclr    0x193, 0         	BCLR	_PDP0bits,0
                                           ;	.line	772; "MC32F7361.c"	P00OE = 0;    // 
0002d1   d191     bclr    0x191, 0         	BCLR	_OEP0bits,0
                                           ;	.line	773; "MC32F7361.c"	P00DC = 1;    // 
0002d2   c1b6     bset    0x1b6, 0         	BSET	_P0ADCRbits,0
                                           ;	.line	774; "MC32F7361.c"	ADCR1 = 0xE1; // 125K  3V
0002d3   3ce1     movai   0xe1             	MOVAI	0xe1
0002d4   57b1     movra   0x1b1            	MOVRA	_ADCR1
                                           ;	.line	775; "MC32F7361.c"	ADCR2 = 0xFF; // ADC15ADC
0002d5   3cff     movai   0xff             	MOVAI	0xff
0002d6   57b2     movra   0x1b2            	MOVRA	_ADCR2
                                           ;	.line	776; "MC32F7361.c"	ADEN = 1;     // ADC
0002d7   c1b0     bset    0x1b0, 0         	BSET	_ADCR0bits,0
                                           ;	.line	778; "MC32F7361.c"	adc_sel_pin(ADC_PIN_P00_AN0);
0002d8   3c01     movai   0x1              	MOVAI	0x01
0002d9   85d3     call    0x5d3            	CALL	_adc_sel_pin
                                           ;	.line	779; "MC32F7361.c"	adc_val = adc_get_val_once();
0002da   851a     call    0x51a            	CALL	_adc_get_val_once
0002db   566f     movra   0x6f             	MOVRA	(_adc_val + 1)
0002dc   5806     movar   0x6              	MOVAR	STK00
0002dd   566e     movra   0x6e             	MOVRA	_adc_val
                                           ;;unsigned compare: left < lit(0x800=2048), size=2
                                           ;	.line	780; "MC32F7361.c"	if (adc_val < ADCDETECT_CHARING_THRESHOLD && P11D) // /
0002de   3c08     movai   0x8              	MOVAI	0x08
0002df   486f     rsubar  0x6f             	RSUBAR	(_adc_val + 1)
0002e0   e587     jbset   0x187, 0x2       	JBSET	PFLAG,2
0002e1   a2e4     goto    0x2e4            	GOTO	_00689_DS_
0002e2   3c00     movai   0                	MOVAI	0x00
0002e3   486e     rsubar  0x6e             	RSUBAR	_adc_val
                                           _00689_DS_
0002e4   f187     jbclr   0x187, 0         	JBCLR	PFLAG,0
0002e5   a2e8     goto    0x2e8            	GOTO	_00660_DS_
                                           ;;genSkipc:3291: created from rifx:013B5EFC
0002e6   f394     jbclr   0x194, 0x1       	JBCLR	_IOP1bits,1
0002e7   a2a4     goto    0x2a4            	GOTO	_00658_DS_
                                           _00660_DS_
                                           ;	.line	788; "MC32F7361.c"	P02PU = 0; // 
0002e8   d592     bclr    0x192, 0x2       	BCLR	_PUP0bits,2
                                           ;	.line	789; "MC32F7361.c"	P02PD = 0;
0002e9   d593     bclr    0x193, 0x2       	BCLR	_PDP0bits,2
                                           ;	.line	790; "MC32F7361.c"	P02OE = 0; // 
0002ea   d591     bclr    0x191, 0x2       	BCLR	_OEP0bits,2
                                           ;	.line	791; "MC32F7361.c"	P02DC = 1; // 
0002eb   c5b6     bset    0x1b6, 0x2       	BSET	_P0ADCRbits,2
                                           ;	.line	792; "MC32F7361.c"	adc_sel_pin(ADC_PIN_P02_AN1);
0002ec   3c02     movai   0x2              	MOVAI	0x02
0002ed   85d3     call    0x5d3            	CALL	_adc_sel_pin
                                           ;	.line	793; "MC32F7361.c"	adc_val = adc_get_val();
0002ee   8536     call    0x536            	CALL	_adc_get_val
0002ef   566f     movra   0x6f             	MOVRA	(_adc_val + 1)
0002f0   5806     movar   0x6              	MOVAR	STK00
0002f1   566e     movra   0x6e             	MOVRA	_adc_val
                                           ;	.line	804; "MC32F7361.c"	FLAG_IS_NOT_OPEN_DEVICE = 0;
0002f2   dc80     bclr    0x80, 0x6        	BCLR	_flag1,6
                                           ;	.line	806; "MC32F7361.c"	HFEN = 1; // 
0002f3   c1ae     bset    0x1ae, 0         	BSET	_OSCMRbits,0
                                           ;	.line	829; "MC32F7361.c"	Sys_Init();
0002f4   850c     call    0x50c            	CALL	_Sys_Init
                                           ;	.line	831; "MC32F7361.c"	LED_WORKING_OFF();
0002f5   c994     bset    0x194, 0x4       	BSET	_IOP1bits,4
                                           ;	.line	832; "MC32F7361.c"	LED_FULL_CHARGE_OFF();
0002f6   c790     bset    0x190, 0x3       	BSET	_IOP0bits,3
                                           ;	.line	833; "MC32F7361.c"	LED_CHARGING_OFF();
0002f7   c990     bset    0x190, 0x4       	BSET	_IOP0bits,4
                                           ;	.line	834; "MC32F7361.c"	GIE = 1;
0002f8   cf88     bset    0x188, 0x7       	BSET	_MCRbits,7
                                           _00671_DS_
                                           ;	.line	836; "MC32F7361.c"	}
0002f9   000c     return                   	RETURN	
                                           ; exit point of _low_power_scan_handle
                                           
                                           ;***
                                           ;  pBlock Stats: dbName = C
                                           ;***
                                           ;entry:  _shutdown_scan_handle	;Function start
                                           ; 2 exit points
                                           ;has an exit
                                           ;; Starting pCode block
                                           _shutdown_scan_handle	;Function start
                                           ; 2 exit points
                                           ;	.line	665; "MC32F7361.c"	if (FLAG_IS_DEVICE_OPEN)
0002fa   e080     jbset   0x80, 0          	JBSET	_flag1,0
0002fb   a31d     goto    0x31d            	GOTO	_00637_DS_
                                           ;	.line	668; "MC32F7361.c"	shut_down_ms_cnt += ONE_CYCLE_TIME_MS;
0002fc   3c59     movai   0x59             	MOVAI	0x59
0002fd   7e5e     addra   0x5e             	ADDRA	_shut_down_ms_cnt
0002fe   f187     jbclr   0x187, 0         	JBCLR	PFLAG,0
0002ff   665f     incr    0x5f             	INCR	(_shut_down_ms_cnt + 1)
000300   f587     jbclr   0x187, 0x2       	JBCLR	PFLAG,2
000301   6660     incr    0x60             	INCR	(_shut_down_ms_cnt + 2)
000302   f587     jbclr   0x187, 0x2       	JBCLR	PFLAG,2
000303   6661     incr    0x61             	INCR	(_shut_down_ms_cnt + 3)
                                           ;;unsigned compare: left < lit(0xDBBA0=900000), size=4
                                           ;	.line	669; "MC32F7361.c"	if (shut_down_ms_cnt >= 900000)
000304   3c00     movai   0                	MOVAI	0x00
000305   4861     rsubar  0x61             	RSUBAR	(_shut_down_ms_cnt + 3)
000306   e587     jbset   0x187, 0x2       	JBSET	PFLAG,2
000307   a312     goto    0x312            	GOTO	_00649_DS_
000308   3c0d     movai   0xd              	MOVAI	0x0d
000309   4860     rsubar  0x60             	RSUBAR	(_shut_down_ms_cnt + 2)
00030a   e587     jbset   0x187, 0x2       	JBSET	PFLAG,2
00030b   a312     goto    0x312            	GOTO	_00649_DS_
00030c   3cbb     movai   0xbb             	MOVAI	0xbb
00030d   485f     rsubar  0x5f             	RSUBAR	(_shut_down_ms_cnt + 1)
00030e   e587     jbset   0x187, 0x2       	JBSET	PFLAG,2
00030f   a312     goto    0x312            	GOTO	_00649_DS_
000310   3ca0     movai   0xa0             	MOVAI	0xa0
000311   485e     rsubar  0x5e             	RSUBAR	_shut_down_ms_cnt
                                           _00649_DS_
000312   e187     jbset   0x187, 0         	JBSET	PFLAG,0
000313   a321     goto    0x321            	GOTO	_00639_DS_
                                           ;;genSkipc:3291: created from rifx:013B5EFC
                                           ;	.line	673; "MC32F7361.c"	LED_WORKING_OFF(); // 
000314   c994     bset    0x194, 0x4       	BSET	_IOP1bits,4
                                           ;	.line	674; "MC32F7361.c"	HEATING_OFF();     // 
000315   d594     bclr    0x194, 0x2       	BCLR	_IOP1bits,2
                                           ;	.line	675; "MC32F7361.c"	FLAG_IS_HEATING = 0;
000316   d280     bclr    0x80, 0x1        	BCLR	_flag1,1
                                           ;	.line	676; "MC32F7361.c"	mode_flag = MODE_3; //  MODE_1
000317   3c02     movai   0x2              	MOVAI	0x02
000318   5678     movra   0x78             	MOVRA	_mode_flag
                                           ;	.line	678; "MC32F7361.c"	PWM0EC = 0;
000319   dd98     bclr    0x198, 0x6       	BCLR	_T0CRbits,6
                                           ;	.line	679; "MC32F7361.c"	PWM1EC = 0;
00031a   dd9c     bclr    0x19c, 0x6       	BCLR	_T1CRbits,6
                                           ;	.line	681; "MC32F7361.c"	FLAG_IS_DEVICE_OPEN = 0;
00031b   d080     bclr    0x80, 0          	BCLR	_flag1,0
00031c   a321     goto    0x321            	GOTO	_00639_DS_
                                           _00637_DS_
                                           ;	.line	687; "MC32F7361.c"	shut_down_ms_cnt = 0;
00031d   765e     clrr    0x5e             	CLRR	_shut_down_ms_cnt
00031e   765f     clrr    0x5f             	CLRR	(_shut_down_ms_cnt + 1)
00031f   7660     clrr    0x60             	CLRR	(_shut_down_ms_cnt + 2)
000320   7661     clrr    0x61             	CLRR	(_shut_down_ms_cnt + 3)
                                           _00639_DS_
                                           ;	.line	689; "MC32F7361.c"	}
000321   000c     return                   	RETURN	
                                           ; exit point of _shutdown_scan_handle
                                           
                                           ;***
                                           ;  pBlock Stats: dbName = C
                                           ;***
                                           ;entry:  _turn_dir_scan_handle	;Function start
                                           ; 2 exit points
                                           ;has an exit
                                           ;functions called:
                                           ;   _delay_ms
                                           ;   _delay_ms
                                           ;   _delay_ms
                                           ;   _delay_ms
                                           ;1 compiler assigned register :
                                           ;   STK00
                                           ;; Starting pCode block
                                           _turn_dir_scan_handle	;Function start
                                           ; 2 exit points
                                           ;	.line	629; "MC32F7361.c"	if (FLAG_IS_DEVICE_OPEN)
000322   e080     jbset   0x80, 0          	JBSET	_flag1,0
000323   a352     goto    0x352            	GOTO	_00607_DS_
                                           ;	.line	632; "MC32F7361.c"	turn_dir_ms_cnt += ONE_CYCLE_TIME_MS;
000324   3c59     movai   0x59             	MOVAI	0x59
000325   7e5a     addra   0x5a             	ADDRA	_turn_dir_ms_cnt
000326   f187     jbclr   0x187, 0         	JBCLR	PFLAG,0
000327   665b     incr    0x5b             	INCR	(_turn_dir_ms_cnt + 1)
000328   f587     jbclr   0x187, 0x2       	JBCLR	PFLAG,2
000329   665c     incr    0x5c             	INCR	(_turn_dir_ms_cnt + 2)
00032a   f587     jbclr   0x187, 0x2       	JBCLR	PFLAG,2
00032b   665d     incr    0x5d             	INCR	(_turn_dir_ms_cnt + 3)
                                           ;;unsigned compare: left < lit(0x1D4C0=120000), size=4
                                           ;	.line	633; "MC32F7361.c"	if (turn_dir_ms_cnt >= (120000)) // 2min
00032c   3c00     movai   0                	MOVAI	0x00
00032d   485d     rsubar  0x5d             	RSUBAR	(_turn_dir_ms_cnt + 3)
00032e   e587     jbset   0x187, 0x2       	JBSET	PFLAG,2
00032f   a33a     goto    0x33a            	GOTO	_00623_DS_
000330   3c01     movai   0x1              	MOVAI	0x01
000331   485c     rsubar  0x5c             	RSUBAR	(_turn_dir_ms_cnt + 2)
000332   e587     jbset   0x187, 0x2       	JBSET	PFLAG,2
000333   a33a     goto    0x33a            	GOTO	_00623_DS_
000334   3cd4     movai   0xd4             	MOVAI	0xd4
000335   485b     rsubar  0x5b             	RSUBAR	(_turn_dir_ms_cnt + 1)
000336   e587     jbset   0x187, 0x2       	JBSET	PFLAG,2
000337   a33a     goto    0x33a            	GOTO	_00623_DS_
000338   3cc0     movai   0xc0             	MOVAI	0xc0
000339   485a     rsubar  0x5a             	RSUBAR	_turn_dir_ms_cnt
                                           _00623_DS_
00033a   e187     jbset   0x187, 0         	JBSET	PFLAG,0
00033b   a356     goto    0x356            	GOTO	_00609_DS_
                                           ;;genSkipc:3291: created from rifx:013B5EFC
                                           ;	.line	636; "MC32F7361.c"	if (0 == FLAG_DIR)
00033c   f680     jbclr   0x80, 0x3        	JBCLR	_flag1,3
00033d   a346     goto    0x346            	GOTO	_00602_DS_
                                           ;	.line	639; "MC32F7361.c"	PWM0EC = 0; // pwm
00033e   dd98     bclr    0x198, 0x6       	BCLR	_T0CRbits,6
                                           ;	.line	640; "MC32F7361.c"	delay_ms(500);
00033f   3cf4     movai   0xf4             	MOVAI	0xf4
000340   5606     movra   0x6              	MOVRA	STK00
000341   3c01     movai   0x1              	MOVAI	0x01
000342   863c     call    0x63c            	CALL	_delay_ms
                                           ;	.line	641; "MC32F7361.c"	PWM1EC = 1;   // pwm
000343   cd9c     bset    0x19c, 0x6       	BSET	_T1CRbits,6
                                           ;	.line	642; "MC32F7361.c"	FLAG_DIR = 1; // 
000344   c680     bset    0x80, 0x3        	BSET	_flag1,3
000345   a34d     goto    0x34d            	GOTO	_00603_DS_
                                           _00602_DS_
                                           ;	.line	647; "MC32F7361.c"	PWM1EC = 0; // pwm
000346   dd9c     bclr    0x19c, 0x6       	BCLR	_T1CRbits,6
                                           ;	.line	648; "MC32F7361.c"	delay_ms(500);
000347   3cf4     movai   0xf4             	MOVAI	0xf4
000348   5606     movra   0x6              	MOVRA	STK00
000349   3c01     movai   0x1              	MOVAI	0x01
00034a   863c     call    0x63c            	CALL	_delay_ms
                                           ;	.line	649; "MC32F7361.c"	PWM0EC = 1;   // pwm
00034b   cd98     bset    0x198, 0x6       	BSET	_T0CRbits,6
                                           ;	.line	650; "MC32F7361.c"	FLAG_DIR = 0; // 
00034c   d680     bclr    0x80, 0x3        	BCLR	_flag1,3
                                           _00603_DS_
                                           ;	.line	653; "MC32F7361.c"	turn_dir_ms_cnt = 0;
00034d   765a     clrr    0x5a             	CLRR	_turn_dir_ms_cnt
00034e   765b     clrr    0x5b             	CLRR	(_turn_dir_ms_cnt + 1)
00034f   765c     clrr    0x5c             	CLRR	(_turn_dir_ms_cnt + 2)
000350   765d     clrr    0x5d             	CLRR	(_turn_dir_ms_cnt + 3)
000351   a356     goto    0x356            	GOTO	_00609_DS_
                                           _00607_DS_
                                           ;	.line	658; "MC32F7361.c"	turn_dir_ms_cnt = 0; // 
000352   765a     clrr    0x5a             	CLRR	_turn_dir_ms_cnt
000353   765b     clrr    0x5b             	CLRR	(_turn_dir_ms_cnt + 1)
000354   765c     clrr    0x5c             	CLRR	(_turn_dir_ms_cnt + 2)
000355   765d     clrr    0x5d             	CLRR	(_turn_dir_ms_cnt + 3)
                                           _00609_DS_
                                           ;	.line	660; "MC32F7361.c"	}
000356   000c     return                   	RETURN	
                                           ; exit point of _turn_dir_scan_handle
                                           
                                           ;***
                                           ;  pBlock Stats: dbName = C
                                           ;***
                                           ;entry:  _adc_scan_handle	;Function start
                                           ; 2 exit points
                                           ;has an exit
                                           ;functions called:
                                           ;   _adc_sel_pin
                                           ;   _adc_get_val
                                           ;   _adc_sel_pin
                                           ;   _adc_get_val
                                           ;   _adc_sel_pin
                                           ;   _adc_get_val
                                           ;   _adc_sel_pin
                                           ;   _adc_get_val
                                           ;5 compiler assigned registers:
                                           ;   STK00
                                           ;   r0x1046
                                           ;   r0x1047
                                           ;   r0x1048
                                           ;   r0x1049
                                           ;; Starting pCode block
                                           _adc_scan_handle	;Function start
                                           ; 2 exit points
                                           ;	.line	439; "MC32F7361.c"	volatile u8 cnt = 0;             // /
000357   7627     clrr    0x27             	CLRR	_adc_scan_handle_cnt_65536_65
                                           ;	.line	440; "MC32F7361.c"	volatile u8 need_charge_cnt = 0; // 
000358   7628     clrr    0x28             	CLRR	_adc_scan_handle_need_charge_cnt_65536_65
                                           ;	.line	442; "MC32F7361.c"	adc_bat_val = 0;
000359   7662     clrr    0x62             	CLRR	_adc_bat_val
00035a   7663     clrr    0x63             	CLRR	(_adc_bat_val + 1)
00035b   7664     clrr    0x64             	CLRR	(_adc_bat_val + 2)
00035c   7665     clrr    0x65             	CLRR	(_adc_bat_val + 3)
                                           ;	.line	443; "MC32F7361.c"	adc_charging_val = 0;
00035d   7670     clrr    0x70             	CLRR	_adc_charging_val
00035e   7671     clrr    0x71             	CLRR	(_adc_charging_val + 1)
                                           ;	.line	445; "MC32F7361.c"	adc_sel_pin(ADC_PIN_P02_AN1); // 
00035f   3c02     movai   0x2              	MOVAI	0x02
000360   85d3     call    0x5d3            	CALL	_adc_sel_pin
                                           ;	.line	446; "MC32F7361.c"	for (i = 0; i < 10; i++)      //  // 55ms4.8ms
000361   767a     clrr    0x7a             	CLRR	_i
                                           ;;unsigned compare: left < lit(0xA=10), size=1
                                           _00475_DS_
000362   3c0a     movai   0xa              	MOVAI	0x0a
000363   487a     rsubar  0x7a             	RSUBAR	_i
000364   f187     jbclr   0x187, 0         	JBCLR	PFLAG,0
000365   a417     goto    0x417            	GOTO	_00443_DS_
                                           ;;genSkipc:3291: created from rifx:013B5EFC
                                           ;	.line	448; "MC32F7361.c"	adc_val = adc_get_val();
000366   8536     call    0x536            	CALL	_adc_get_val
000367   566f     movra   0x6f             	MOVRA	(_adc_val + 1)
000368   5806     movar   0x6              	MOVAR	STK00
000369   566e     movra   0x6e             	MOVRA	_adc_val
                                           ;	.line	450; "MC32F7361.c"	if (i == 0)
00036a   3c00     movai   0                	MOVAI	0x00
00036b   5c7a     orar    0x7a             	ORAR	_i
00036c   e587     jbset   0x187, 0x2       	JBSET	PFLAG,2
00036d   a3a2     goto    0x3a2            	GOTO	_00403_DS_
                                           ;	.line	452; "MC32F7361.c"	if (adc_bat_val != 0)
00036e   5862     movar   0x62             	MOVAR	_adc_bat_val
00036f   5c63     orar    0x63             	ORAR	(_adc_bat_val + 1)
000370   5c64     orar    0x64             	ORAR	(_adc_bat_val + 2)
000371   5c65     orar    0x65             	ORAR	(_adc_bat_val + 3)
000372   f587     jbclr   0x187, 0x2       	JBCLR	PFLAG,2
000373   a38e     goto    0x38e            	GOTO	_00400_DS_
                                           ;	.line	454; "MC32F7361.c"	adc_bat_val += adc_val;
000374   586e     movar   0x6e             	MOVAR	_adc_val
000375   5616     movra   0x16             	MOVRA	r0x1046
000376   586f     movar   0x6f             	MOVAR	(_adc_val + 1)
000377   5617     movra   0x17             	MOVRA	r0x1047
000378   7618     clrr    0x18             	CLRR	r0x1048
000379   7619     clrr    0x19             	CLRR	r0x1049
00037a   5816     movar   0x16             	MOVAR	r0x1046
00037b   7e62     addra   0x62             	ADDRA	_adc_bat_val
00037c   5817     movar   0x17             	MOVAR	r0x1047
00037d   f187     jbclr   0x187, 0         	JBCLR	PFLAG,0
00037e   6017     jzar    0x17             	JZAR	r0x1047
00037f   7e63     addra   0x63             	ADDRA	(_adc_bat_val + 1)
000380   5818     movar   0x18             	MOVAR	r0x1048
000381   f187     jbclr   0x187, 0         	JBCLR	PFLAG,0
000382   6018     jzar    0x18             	JZAR	r0x1048
000383   7e64     addra   0x64             	ADDRA	(_adc_bat_val + 2)
000384   5819     movar   0x19             	MOVAR	r0x1049
000385   f187     jbclr   0x187, 0         	JBCLR	PFLAG,0
000386   6019     jzar    0x19             	JZAR	r0x1049
000387   7e65     addra   0x65             	ADDRA	(_adc_bat_val + 3)
                                           ;;shiftRight_Left2ResultLit:5339: shCount=1, size=4, sign=0, same=1, offr=0
                                           ;	.line	455; "MC32F7361.c"	adc_bat_val /= 2;
000388   d187     bclr    0x187, 0         	BCLR	PFLAG,0
000389   4e65     rrr     0x65             	RRR	(_adc_bat_val + 3)
00038a   4e64     rrr     0x64             	RRR	(_adc_bat_val + 2)
00038b   4e63     rrr     0x63             	RRR	(_adc_bat_val + 1)
00038c   4e62     rrr     0x62             	RRR	_adc_bat_val
00038d   a3a2     goto    0x3a2            	GOTO	_00403_DS_
                                           _00400_DS_
                                           ;	.line	459; "MC32F7361.c"	adc_bat_val += adc_val;
00038e   586e     movar   0x6e             	MOVAR	_adc_val
00038f   5616     movra   0x16             	MOVRA	r0x1046
000390   586f     movar   0x6f             	MOVAR	(_adc_val + 1)
000391   5617     movra   0x17             	MOVRA	r0x1047
000392   7618     clrr    0x18             	CLRR	r0x1048
000393   7619     clrr    0x19             	CLRR	r0x1049
000394   5816     movar   0x16             	MOVAR	r0x1046
000395   7e62     addra   0x62             	ADDRA	_adc_bat_val
000396   5817     movar   0x17             	MOVAR	r0x1047
000397   f187     jbclr   0x187, 0         	JBCLR	PFLAG,0
000398   6017     jzar    0x17             	JZAR	r0x1047
000399   7e63     addra   0x63             	ADDRA	(_adc_bat_val + 1)
00039a   5818     movar   0x18             	MOVAR	r0x1048
00039b   f187     jbclr   0x187, 0         	JBCLR	PFLAG,0
00039c   6018     jzar    0x18             	JZAR	r0x1048
00039d   7e64     addra   0x64             	ADDRA	(_adc_bat_val + 2)
00039e   5819     movar   0x19             	MOVAR	r0x1049
00039f   f187     jbclr   0x187, 0         	JBCLR	PFLAG,0
0003a0   6019     jzar    0x19             	JZAR	r0x1049
0003a1   7e65     addra   0x65             	ADDRA	(_adc_bat_val + 3)
                                           _00403_DS_
                                           ;	.line	463; "MC32F7361.c"	if (FLAG_IS_IN_CHARGING)
0003a2   e480     jbset   0x80, 0x2        	JBSET	_flag1,2
0003a3   a401     goto    0x401            	GOTO	_00441_DS_
                                           ;;unsigned compare: left < lit(0xFA0=4000), size=2
                                           ;	.line	466; "MC32F7361.c"	if (adc_val >= ADCDETECT_BAT_FULL + ADCDETECT_BAT_NULL_EX)
0003a4   3c0f     movai   0xf              	MOVAI	0x0f
0003a5   486f     rsubar  0x6f             	RSUBAR	(_adc_val + 1)
0003a6   e587     jbset   0x187, 0x2       	JBSET	PFLAG,2
0003a7   a3aa     goto    0x3aa            	GOTO	_00583_DS_
0003a8   3ca0     movai   0xa0             	MOVAI	0xa0
0003a9   486e     rsubar  0x6e             	RSUBAR	_adc_val
                                           _00583_DS_
0003aa   e187     jbset   0x187, 0         	JBSET	PFLAG,0
0003ab   a3ae     goto    0x3ae            	GOTO	_00405_DS_
                                           ;;genSkipc:3291: created from rifx:013B5EFC
                                           ;	.line	469; "MC32F7361.c"	T2DATA = 0;
0003ac   77a3     clrr    0x1a3            	CLRR	_T2DATA
                                           ;	.line	470; "MC32F7361.c"	over_charging_cnt++;
0003ad   667d     incr    0x7d             	INCR	_over_charging_cnt
                                           ;;unsigned compare: left < lit(0xE88=3720), size=2
                                           _00405_DS_
                                           ;	.line	473; "MC32F7361.c"	if (adc_val >= ADCDETECT_BAT_FULL) // 
0003ae   3c0e     movai   0xe              	MOVAI	0x0e
0003af   486f     rsubar  0x6f             	RSUBAR	(_adc_val + 1)
0003b0   e587     jbset   0x187, 0x2       	JBSET	PFLAG,2
0003b1   a3b4     goto    0x3b4            	GOTO	_00584_DS_
0003b2   3c88     movai   0x88             	MOVAI	0x88
0003b3   486e     rsubar  0x6e             	RSUBAR	_adc_val
                                           _00584_DS_
0003b4   e187     jbset   0x187, 0         	JBSET	PFLAG,0
0003b5   a3b8     goto    0x3b8            	GOTO	_00409_DS_
                                           ;;genSkipc:3291: created from rifx:013B5EFC
                                           ;	.line	475; "MC32F7361.c"	cnt++;
0003b6   6627     incr    0x27             	INCR	_adc_scan_handle_cnt_65536_65
0003b7   a3c1     goto    0x3c1            	GOTO	_00410_DS_
                                           ;;unsigned compare: left < lit(0xD90=3472), size=2
                                           _00409_DS_
                                           ;	.line	477; "MC32F7361.c"	else if (adc_val < ADCDETECT_BAT_WILL_FULL) // 
0003b8   3c0d     movai   0xd              	MOVAI	0x0d
0003b9   486f     rsubar  0x6f             	RSUBAR	(_adc_val + 1)
0003ba   e587     jbset   0x187, 0x2       	JBSET	PFLAG,2
0003bb   a3be     goto    0x3be            	GOTO	_00585_DS_
0003bc   3c90     movai   0x90             	MOVAI	0x90
0003bd   486e     rsubar  0x6e             	RSUBAR	_adc_val
                                           _00585_DS_
0003be   f187     jbclr   0x187, 0         	JBCLR	PFLAG,0
0003bf   a3c1     goto    0x3c1            	GOTO	_00410_DS_
                                           ;;genSkipc:3291: created from rifx:013B5EFC
                                           ;	.line	479; "MC32F7361.c"	need_charge_cnt++;
0003c0   6628     incr    0x28             	INCR	_adc_scan_handle_need_charge_cnt_65536_65
                                           _00410_DS_
                                           ;	.line	482; "MC32F7361.c"	if (flag_bat_is_empty)
0003c1   3c00     movai   0                	MOVAI	0x00
0003c2   5c7c     orar    0x7c             	ORAR	_flag_bat_is_empty
0003c3   f587     jbclr   0x187, 0x2       	JBCLR	PFLAG,2
0003c4   a3cb     goto    0x3cb            	GOTO	_00433_DS_
                                           ;	.line	486; "MC32F7361.c"	LED_CHARGING_OFF(); // 
0003c5   c990     bset    0x190, 0x4       	BSET	_IOP0bits,4
                                           ;	.line	487; "MC32F7361.c"	PWM2EC = 0;         // pwmPWM
0003c6   dda0     bclr    0x1a0, 0x6       	BCLR	_T2CRbits,6
                                           ;	.line	488; "MC32F7361.c"	T2DATA = 0;
0003c7   77a3     clrr    0x1a3            	CLRR	_T2DATA
                                           ;	.line	489; "MC32F7361.c"	FLAG_BAT_IS_NEED_CHARGE = 0;
0003c8   d880     bclr    0x80, 0x4        	BCLR	_flag1,4
                                           ;	.line	490; "MC32F7361.c"	FLAG_DURING_CHARGING_BAT_IS_NULL = 1; // 
0003c9   ce80     bset    0x80, 0x7        	BSET	_flag1,7
                                           ;	.line	492; "MC32F7361.c"	break;
0003ca   a417     goto    0x417            	GOTO	_00443_DS_
                                           ;;unsigned compare: left < lit(0x8=8), size=1
                                           _00433_DS_
                                           ;	.line	494; "MC32F7361.c"	else if (cnt >= 8 || over_charging_cnt >= 8)
0003cb   3c08     movai   0x8              	MOVAI	0x08
0003cc   4827     rsubar  0x27             	RSUBAR	_adc_scan_handle_cnt_65536_65
0003cd   f187     jbclr   0x187, 0         	JBCLR	PFLAG,0
0003ce   a3d3     goto    0x3d3            	GOTO	_00428_DS_
                                           ;;genSkipc:3291: created from rifx:013B5EFC
                                           ;;unsigned compare: left < lit(0x8=8), size=1
0003cf   3c08     movai   0x8              	MOVAI	0x08
0003d0   487d     rsubar  0x7d             	RSUBAR	_over_charging_cnt
0003d1   e187     jbset   0x187, 0         	JBSET	PFLAG,0
0003d2   a3f9     goto    0x3f9            	GOTO	_00429_DS_
                                           ;;genSkipc:3291: created from rifx:013B5EFC
                                           _00428_DS_
                                           ;	.line	498; "MC32F7361.c"	full_charge_cnt++;
0003d3   666a     incr    0x6a             	INCR	_full_charge_cnt
0003d4   f587     jbclr   0x187, 0x2       	JBCLR	PFLAG,2
0003d5   666b     incr    0x6b             	INCR	(_full_charge_cnt + 1)
0003d6   f587     jbclr   0x187, 0x2       	JBCLR	PFLAG,2
0003d7   666c     incr    0x6c             	INCR	(_full_charge_cnt + 2)
0003d8   f587     jbclr   0x187, 0x2       	JBCLR	PFLAG,2
0003d9   666d     incr    0x6d             	INCR	(_full_charge_cnt + 3)
                                           ;;unsigned compare: left < lit(0x64=100), size=4
                                           ;	.line	500; "MC32F7361.c"	if (full_charge_cnt >= 100 || over_charging_cnt >= 8) // 5.5s
0003da   3c00     movai   0                	MOVAI	0x00
0003db   486d     rsubar  0x6d             	RSUBAR	(_full_charge_cnt + 3)
0003dc   e587     jbset   0x187, 0x2       	JBSET	PFLAG,2
0003dd   a3e8     goto    0x3e8            	GOTO	_00588_DS_
0003de   3c00     movai   0                	MOVAI	0x00
0003df   486c     rsubar  0x6c             	RSUBAR	(_full_charge_cnt + 2)
0003e0   e587     jbset   0x187, 0x2       	JBSET	PFLAG,2
0003e1   a3e8     goto    0x3e8            	GOTO	_00588_DS_
0003e2   3c00     movai   0                	MOVAI	0x00
0003e3   486b     rsubar  0x6b             	RSUBAR	(_full_charge_cnt + 1)
0003e4   e587     jbset   0x187, 0x2       	JBSET	PFLAG,2
0003e5   a3e8     goto    0x3e8            	GOTO	_00588_DS_
0003e6   3c64     movai   0x64             	MOVAI	0x64
0003e7   486a     rsubar  0x6a             	RSUBAR	_full_charge_cnt
                                           _00588_DS_
0003e8   f187     jbclr   0x187, 0         	JBCLR	PFLAG,0
0003e9   a3ee     goto    0x3ee            	GOTO	_00420_DS_
                                           ;;genSkipc:3291: created from rifx:013B5EFC
                                           ;;unsigned compare: left < lit(0x8=8), size=1
0003ea   3c08     movai   0x8              	MOVAI	0x08
0003eb   487d     rsubar  0x7d             	RSUBAR	_over_charging_cnt
0003ec   e187     jbset   0x187, 0         	JBSET	PFLAG,0
0003ed   a415     goto    0x415            	GOTO	_00476_DS_
                                           ;;genSkipc:3291: created from rifx:013B5EFC
                                           _00420_DS_
                                           ;	.line	502; "MC32F7361.c"	full_charge_cnt = 0; //
0003ee   766a     clrr    0x6a             	CLRR	_full_charge_cnt
0003ef   766b     clrr    0x6b             	CLRR	(_full_charge_cnt + 1)
0003f0   766c     clrr    0x6c             	CLRR	(_full_charge_cnt + 2)
0003f1   766d     clrr    0x6d             	CLRR	(_full_charge_cnt + 3)
                                           ;	.line	504; "MC32F7361.c"	LED_CHARGING_OFF(); // 
0003f2   c990     bset    0x190, 0x4       	BSET	_IOP0bits,4
                                           ;	.line	505; "MC32F7361.c"	LED_WORKING_ON();   // 
0003f3   d994     bclr    0x194, 0x4       	BCLR	_IOP1bits,4
                                           ;	.line	506; "MC32F7361.c"	PWM2EC = 0;         // pwm
0003f4   dda0     bclr    0x1a0, 0x6       	BCLR	_T2CRbits,6
                                           ;	.line	507; "MC32F7361.c"	T2DATA = 0;
0003f5   77a3     clrr    0x1a3            	CLRR	_T2DATA
                                           ;	.line	509; "MC32F7361.c"	FLAG_BAT_IS_NEED_CHARGE = 0;
0003f6   d880     bclr    0x80, 0x4        	BCLR	_flag1,4
                                           ;	.line	510; "MC32F7361.c"	FLAG_BAT_IS_FULL = 1;
0003f7   ca80     bset    0x80, 0x5        	BSET	_flag1,5
                                           ;	.line	511; "MC32F7361.c"	break;
0003f8   a417     goto    0x417            	GOTO	_00443_DS_
                                           ;;unsigned compare: left < lit(0x8=8), size=1
                                           _00429_DS_
                                           ;	.line	514; "MC32F7361.c"	else if (need_charge_cnt >= 8)
0003f9   3c08     movai   0x8              	MOVAI	0x08
0003fa   4828     rsubar  0x28             	RSUBAR	_adc_scan_handle_need_charge_cnt_65536_65
0003fb   e187     jbset   0x187, 0         	JBSET	PFLAG,0
0003fc   a415     goto    0x415            	GOTO	_00476_DS_
                                           ;;genSkipc:3291: created from rifx:013B5EFC
                                           ;	.line	518; "MC32F7361.c"	LED_FULL_CHARGE_OFF(); // 
0003fd   c790     bset    0x190, 0x3       	BSET	_IOP0bits,3
                                           ;	.line	519; "MC32F7361.c"	FLAG_BAT_IS_NEED_CHARGE = 1;
0003fe   c880     bset    0x80, 0x4        	BSET	_flag1,4
                                           ;	.line	520; "MC32F7361.c"	FLAG_BAT_IS_FULL = 0;
0003ff   da80     bclr    0x80, 0x5        	BCLR	_flag1,5
                                           ;	.line	521; "MC32F7361.c"	break;
000400   a417     goto    0x417            	GOTO	_00443_DS_
                                           _00441_DS_
                                           ;	.line	527; "MC32F7361.c"	if (flag_bat_is_empty == 0 && adc_val <= ADCDETECT_BAT_FULL - ((ADCDETECT_BAT_FULL - ADCDETECT_BAT_WILL_FULL) / 2))
000401   3c00     movai   0                	MOVAI	0x00
000402   5c7c     orar    0x7c             	ORAR	_flag_bat_is_empty
000403   e587     jbset   0x187, 0x2       	JBSET	PFLAG,2
000404   a40e     goto    0x40e            	GOTO	_00436_DS_
                                           ;;swapping arguments (AOP_TYPEs 1/3)
                                           ;;unsigned compare: left >= lit(0xE0D=3597), size=2
000405   3c0e     movai   0xe              	MOVAI	0x0e
000406   486f     rsubar  0x6f             	RSUBAR	(_adc_val + 1)
000407   e587     jbset   0x187, 0x2       	JBSET	PFLAG,2
000408   a40b     goto    0x40b            	GOTO	_00591_DS_
000409   3c0d     movai   0xd              	MOVAI	0x0d
00040a   486e     rsubar  0x6e             	RSUBAR	_adc_val
                                           _00591_DS_
00040b   f187     jbclr   0x187, 0         	JBCLR	PFLAG,0
00040c   a40e     goto    0x40e            	GOTO	_00436_DS_
                                           ;;genSkipc:3291: created from rifx:013B5EFC
                                           ;	.line	529; "MC32F7361.c"	cnt++;
00040d   6627     incr    0x27             	INCR	_adc_scan_handle_cnt_65536_65
                                           ;;unsigned compare: left < lit(0x8=8), size=1
                                           _00436_DS_
                                           ;	.line	532; "MC32F7361.c"	if (cnt >= 8)
00040e   3c08     movai   0x8              	MOVAI	0x08
00040f   4827     rsubar  0x27             	RSUBAR	_adc_scan_handle_cnt_65536_65
000410   e187     jbset   0x187, 0         	JBSET	PFLAG,0
000411   a415     goto    0x415            	GOTO	_00476_DS_
                                           ;;genSkipc:3291: created from rifx:013B5EFC
                                           ;	.line	535; "MC32F7361.c"	FLAG_BAT_IS_NEED_CHARGE = 1;
000412   c880     bset    0x80, 0x4        	BSET	_flag1,4
                                           ;	.line	536; "MC32F7361.c"	FLAG_BAT_IS_FULL = 0;
000413   da80     bclr    0x80, 0x5        	BCLR	_flag1,5
                                           ;	.line	537; "MC32F7361.c"	break;
000414   a417     goto    0x417            	GOTO	_00443_DS_
                                           _00476_DS_
                                           ;	.line	446; "MC32F7361.c"	for (i = 0; i < 10; i++)      //  // 55ms4.8ms
000415   667a     incr    0x7a             	INCR	_i
000416   a362     goto    0x362            	GOTO	_00475_DS_
                                           _00443_DS_
                                           ;	.line	542; "MC32F7361.c"	cnt = 0;
000417   7627     clrr    0x27             	CLRR	_adc_scan_handle_cnt_65536_65
                                           ;	.line	543; "MC32F7361.c"	adc_sel_pin(ADC_PIN_P00_AN0); // ( == USB-C / 2)
000418   3c01     movai   0x1              	MOVAI	0x01
000419   85d3     call    0x5d3            	CALL	_adc_sel_pin
                                           ;	.line	544; "MC32F7361.c"	for (i = 0; i < 10; i++)
00041a   767a     clrr    0x7a             	CLRR	_i
                                           ;;unsigned compare: left < lit(0xA=10), size=1
                                           _00478_DS_
00041b   3c0a     movai   0xa              	MOVAI	0x0a
00041c   487a     rsubar  0x7a             	RSUBAR	_i
00041d   f187     jbclr   0x187, 0         	JBCLR	PFLAG,0
00041e   a472     goto    0x472            	GOTO	_00480_DS_
                                           ;;genSkipc:3291: created from rifx:013B5EFC
                                           ;	.line	546; "MC32F7361.c"	adc_val = adc_get_val();
00041f   8536     call    0x536            	CALL	_adc_get_val
000420   566f     movra   0x6f             	MOVRA	(_adc_val + 1)
000421   5806     movar   0x6              	MOVAR	STK00
000422   566e     movra   0x6e             	MOVRA	_adc_val
                                           ;	.line	547; "MC32F7361.c"	if (flag_bat_is_empty) // 
000423   3c00     movai   0                	MOVAI	0x00
000424   5c7c     orar    0x7c             	ORAR	_flag_bat_is_empty
000425   f587     jbclr   0x187, 0x2       	JBCLR	PFLAG,2
000426   a42b     goto    0x42b            	GOTO	_00445_DS_
                                           ;	.line	549; "MC32F7361.c"	adc_val = 4095; // if (adc_val < ADCDETECT_CHARING_THRESHOLD)
000427   3cff     movai   0xff             	MOVAI	0xff
000428   566e     movra   0x6e             	MOVRA	_adc_val
000429   3c0f     movai   0xf              	MOVAI	0x0f
00042a   566f     movra   0x6f             	MOVRA	(_adc_val + 1)
                                           _00445_DS_
                                           ;	.line	552; "MC32F7361.c"	if (adc_charging_val != 0)
00042b   5870     movar   0x70             	MOVAR	_adc_charging_val
00042c   5c71     orar    0x71             	ORAR	(_adc_charging_val + 1)
00042d   f587     jbclr   0x187, 0x2       	JBCLR	PFLAG,2
00042e   a439     goto    0x439            	GOTO	_00447_DS_
                                           ;	.line	554; "MC32F7361.c"	adc_charging_val += adc_val;
00042f   586e     movar   0x6e             	MOVAR	_adc_val
000430   7e70     addra   0x70             	ADDRA	_adc_charging_val
000431   586f     movar   0x6f             	MOVAR	(_adc_val + 1)
000432   f187     jbclr   0x187, 0         	JBCLR	PFLAG,0
000433   606f     jzar    0x6f             	JZAR	(_adc_val + 1)
000434   7e71     addra   0x71             	ADDRA	(_adc_charging_val + 1)
                                           ;;shiftRight_Left2ResultLit:5339: shCount=1, size=2, sign=0, same=1, offr=0
                                           ;	.line	555; "MC32F7361.c"	adc_charging_val /= 2;
000435   d187     bclr    0x187, 0         	BCLR	PFLAG,0
000436   4e71     rrr     0x71             	RRR	(_adc_charging_val + 1)
000437   4e70     rrr     0x70             	RRR	_adc_charging_val
000438   a43f     goto    0x43f            	GOTO	_00448_DS_
                                           _00447_DS_
                                           ;	.line	559; "MC32F7361.c"	adc_charging_val += adc_val;
000439   586e     movar   0x6e             	MOVAR	_adc_val
00043a   7e70     addra   0x70             	ADDRA	_adc_charging_val
00043b   586f     movar   0x6f             	MOVAR	(_adc_val + 1)
00043c   f187     jbclr   0x187, 0         	JBCLR	PFLAG,0
00043d   606f     jzar    0x6f             	JZAR	(_adc_val + 1)
00043e   7e71     addra   0x71             	ADDRA	(_adc_charging_val + 1)
                                           _00448_DS_
                                           ;	.line	562; "MC32F7361.c"	if (FLAG_IS_IN_CHARGING)
00043f   e480     jbset   0x80, 0x2        	JBSET	_flag1,2
000440   a456     goto    0x456            	GOTO	_00471_DS_
                                           ;;unsigned compare: left < lit(0x800=2048), size=2
                                           ;	.line	565; "MC32F7361.c"	if (adc_val < ADCDETECT_CHARING_THRESHOLD)
000441   3c08     movai   0x8              	MOVAI	0x08
000442   486f     rsubar  0x6f             	RSUBAR	(_adc_val + 1)
000443   e587     jbset   0x187, 0x2       	JBSET	PFLAG,2
000444   a447     goto    0x447            	GOTO	_00594_DS_
000445   3c00     movai   0                	MOVAI	0x00
000446   486e     rsubar  0x6e             	RSUBAR	_adc_val
                                           _00594_DS_
000447   f187     jbclr   0x187, 0         	JBCLR	PFLAG,0
000448   a44a     goto    0x44a            	GOTO	_00450_DS_
                                           ;;genSkipc:3291: created from rifx:013B5EFC
                                           ;	.line	567; "MC32F7361.c"	cnt++;
000449   6627     incr    0x27             	INCR	_adc_scan_handle_cnt_65536_65
                                           ;;unsigned compare: left < lit(0x8=8), size=1
                                           _00450_DS_
                                           ;	.line	570; "MC32F7361.c"	if (cnt >= 8)
00044a   3c08     movai   0x8              	MOVAI	0x08
00044b   4827     rsubar  0x27             	RSUBAR	_adc_scan_handle_cnt_65536_65
00044c   e187     jbset   0x187, 0         	JBSET	PFLAG,0
00044d   a470     goto    0x470            	GOTO	_00479_DS_
                                           ;;genSkipc:3291: created from rifx:013B5EFC
                                           ;	.line	573; "MC32F7361.c"	LED_CHARGING_OFF(); // 
00044e   c990     bset    0x190, 0x4       	BSET	_IOP0bits,4
                                           ;	.line	574; "MC32F7361.c"	PWM2EC = 0;         // pwm
00044f   dda0     bclr    0x1a0, 0x6       	BCLR	_T2CRbits,6
                                           ;	.line	575; "MC32F7361.c"	T2DATA = 0;
000450   77a3     clrr    0x1a3            	CLRR	_T2DATA
                                           ;	.line	576; "MC32F7361.c"	LED_FULL_CHARGE_OFF(); // 
000451   c790     bset    0x190, 0x3       	BSET	_IOP0bits,3
                                           ;	.line	577; "MC32F7361.c"	LED_WORKING_OFF();     //  =====================================
000452   c994     bset    0x194, 0x4       	BSET	_IOP1bits,4
                                           ;	.line	578; "MC32F7361.c"	FLAG_IS_IN_CHARGING = 0;
000453   d480     bclr    0x80, 0x2        	BCLR	_flag1,2
                                           ;	.line	579; "MC32F7361.c"	FLAG_DURING_CHARGING_BAT_IS_NULL = 0; // 
000454   de80     bclr    0x80, 0x7        	BCLR	_flag1,7
                                           ;	.line	580; "MC32F7361.c"	break;
000455   a472     goto    0x472            	GOTO	_00480_DS_
                                           _00471_DS_
                                           ;	.line	586; "MC32F7361.c"	if (flag_bat_is_empty == 0 && adc_val >= ADCDETECT_CHARING_THRESHOLD)
000456   3c00     movai   0                	MOVAI	0x00
000457   5c7c     orar    0x7c             	ORAR	_flag_bat_is_empty
000458   e587     jbset   0x187, 0x2       	JBSET	PFLAG,2
000459   a463     goto    0x463            	GOTO	_00463_DS_
                                           ;;unsigned compare: left < lit(0x800=2048), size=2
00045a   3c08     movai   0x8              	MOVAI	0x08
00045b   486f     rsubar  0x6f             	RSUBAR	(_adc_val + 1)
00045c   e587     jbset   0x187, 0x2       	JBSET	PFLAG,2
00045d   a460     goto    0x460            	GOTO	_00596_DS_
00045e   3c00     movai   0                	MOVAI	0x00
00045f   486e     rsubar  0x6e             	RSUBAR	_adc_val
                                           _00596_DS_
000460   e187     jbset   0x187, 0         	JBSET	PFLAG,0
000461   a463     goto    0x463            	GOTO	_00463_DS_
                                           ;;genSkipc:3291: created from rifx:013B5EFC
                                           ;	.line	588; "MC32F7361.c"	cnt++;
000462   6627     incr    0x27             	INCR	_adc_scan_handle_cnt_65536_65
                                           ;;unsigned compare: left < lit(0x8=8), size=1
                                           _00463_DS_
                                           ;	.line	612; "MC32F7361.c"	if (cnt >= 8)
000463   3c08     movai   0x8              	MOVAI	0x08
000464   4827     rsubar  0x27             	RSUBAR	_adc_scan_handle_cnt_65536_65
000465   e187     jbset   0x187, 0         	JBSET	PFLAG,0
000466   a470     goto    0x470            	GOTO	_00479_DS_
                                           ;;genSkipc:3291: created from rifx:013B5EFC
                                           ;	.line	615; "MC32F7361.c"	full_charge_cnt = 0;
000467   766a     clrr    0x6a             	CLRR	_full_charge_cnt
000468   766b     clrr    0x6b             	CLRR	(_full_charge_cnt + 1)
000469   766c     clrr    0x6c             	CLRR	(_full_charge_cnt + 2)
00046a   766d     clrr    0x6d             	CLRR	(_full_charge_cnt + 3)
                                           ;	.line	616; "MC32F7361.c"	over_charging_cnt = 0;
00046b   767d     clrr    0x7d             	CLRR	_over_charging_cnt
                                           ;	.line	618; "MC32F7361.c"	LED_CHARGING_ON(); // 
00046c   d990     bclr    0x190, 0x4       	BCLR	_IOP0bits,4
                                           ;	.line	619; "MC32F7361.c"	PWM2EC = 1;        // pwm
00046d   cda0     bset    0x1a0, 0x6       	BSET	_T2CRbits,6
                                           ;	.line	620; "MC32F7361.c"	FLAG_IS_IN_CHARGING = 1;
00046e   c480     bset    0x80, 0x2        	BSET	_flag1,2
                                           ;	.line	621; "MC32F7361.c"	break;
00046f   a472     goto    0x472            	GOTO	_00480_DS_
                                           _00479_DS_
                                           ;	.line	544; "MC32F7361.c"	for (i = 0; i < 10; i++)
000470   667a     incr    0x7a             	INCR	_i
000471   a41b     goto    0x41b            	GOTO	_00478_DS_
                                           _00480_DS_
                                           ;	.line	625; "MC32F7361.c"	}
000472   000c     return                   	RETURN	
                                           ; exit point of _adc_scan_handle
                                           
                                           ;***
                                           ;  pBlock Stats: dbName = C
                                           ;***
                                           ;entry:  _key_scan_handle	;Function start
                                           ; 2 exit points
                                           ;has an exit
                                           ;functions called:
                                           ;   _delay_ms
                                           ;   _delay_ms
                                           ;   _delay_ms
                                           ;   _delay_ms
                                           ;   _delay_ms
                                           ;   _delay_ms
                                           ;   _delay_ms
                                           ;   _delay_ms
                                           ;3 compiler assigned registers:
                                           ;   STK00
                                           ;   r0x103D
                                           ;   r0x103E
                                           ;; Starting pCode block
                                           _key_scan_handle	;Function start
                                           ; 2 exit points
                                           ;	.line	293; "MC32F7361.c"	if (0 == KEY_MODE_PIN)
000473   f390     jbclr   0x190, 0x1       	JBCLR	_IOP0bits,1
000474   a4de     goto    0x4de            	GOTO	_00294_DS_
                                           ;	.line	300; "MC32F7361.c"	delay_ms(20); // 
000475   3c14     movai   0x14             	MOVAI	0x14
000476   5606     movra   0x6              	MOVRA	STK00
000477   3c00     movai   0                	MOVAI	0x00
000478   863c     call    0x63c            	CALL	_delay_ms
                                           ;	.line	302; "MC32F7361.c"	if (0 == KEY_MODE_PIN)
000479   f390     jbclr   0x190, 0x1       	JBCLR	_IOP0bits,1
00047a   a50b     goto    0x50b            	GOTO	_00296_DS_
                                           ;	.line	305; "MC32F7361.c"	while (0 == KEY_MODE_PIN)
00047b   760d     clrr    0xd              	CLRR	r0x103D
00047c   760e     clrr    0xe              	CLRR	r0x103E
                                           _00252_DS_
00047d   f390     jbclr   0x190, 0x1       	JBCLR	_IOP0bits,1
00047e   a4b1     goto    0x4b1            	GOTO	_00254_DS_
                                           ;;unsigned compare: left < lit(0xFFFF=65535), size=2
                                           ;	.line	308; "MC32F7361.c"	if (press_cnt < 65535)
00047f   3cff     movai   0xff             	MOVAI	0xff
000480   480e     rsubar  0xe              	RSUBAR	r0x103E
000481   e587     jbset   0x187, 0x2       	JBSET	PFLAG,2
000482   a485     goto    0x485            	GOTO	_00390_DS_
000483   3cff     movai   0xff             	MOVAI	0xff
000484   480d     rsubar  0xd              	RSUBAR	r0x103D
                                           _00390_DS_
000485   f187     jbclr   0x187, 0         	JBCLR	PFLAG,0
000486   a48a     goto    0x48a            	GOTO	_00234_DS_
                                           ;;genSkipc:3291: created from rifx:013B5EFC
                                           ;	.line	309; "MC32F7361.c"	press_cnt++;
000487   660d     incr    0xd              	INCR	r0x103D
000488   f587     jbclr   0x187, 0x2       	JBCLR	PFLAG,2
000489   660e     incr    0xe              	INCR	r0x103E
                                           ;;unsigned compare: left < lit(0x7D0=2000), size=2
                                           _00234_DS_
                                           ;	.line	311; "MC32F7361.c"	if (press_cnt >= 2000)
00048a   3c07     movai   0x7              	MOVAI	0x07
00048b   480e     rsubar  0xe              	RSUBAR	r0x103E
00048c   e587     jbset   0x187, 0x2       	JBSET	PFLAG,2
00048d   a490     goto    0x490            	GOTO	_00391_DS_
00048e   3cd0     movai   0xd0             	MOVAI	0xd0
00048f   480d     rsubar  0xd              	RSUBAR	r0x103D
                                           _00391_DS_
000490   e187     jbset   0x187, 0         	JBSET	PFLAG,0
000491   a4ac     goto    0x4ac            	GOTO	_00251_DS_
                                           ;;genSkipc:3291: created from rifx:013B5EFC
                                           ;	.line	315; "MC32F7361.c"	if (0 == flag_is_key_mode_hold)
000492   3c00     movai   0                	MOVAI	0x00
000493   5c26     orar    0x26             	ORAR	_key_scan_handle_flag_is_key_mode_hold_131072_34
000494   e587     jbset   0x187, 0x2       	JBSET	PFLAG,2
000495   a4ac     goto    0x4ac            	GOTO	_00251_DS_
                                           ;	.line	317; "MC32F7361.c"	flag_is_key_mode_hold = 1; // 
000496   3c01     movai   0x1              	MOVAI	0x01
000497   5626     movra   0x26             	MOVRA	_key_scan_handle_flag_is_key_mode_hold_131072_34
                                           ;	.line	319; "MC32F7361.c"	if (0 == FLAG_IS_DEVICE_OPEN &&
000498   f080     jbclr   0x80, 0          	JBCLR	_flag1,0
000499   a4a5     goto    0x4a5            	GOTO	_00238_DS_
                                           ;	.line	321; "MC32F7361.c"	0 == FLAG_IS_NOT_OPEN_DEVICE)
00049a   fc80     jbclr   0x80, 0x6        	JBCLR	_flag1,6
00049b   a4a5     goto    0x4a5            	GOTO	_00238_DS_
                                           ;	.line	325; "MC32F7361.c"	LED_WORKING_ON(); // 
00049c   d994     bclr    0x194, 0x4       	BCLR	_IOP1bits,4
                                           ;	.line	327; "MC32F7361.c"	FLAG_IS_DEVICE_OPEN = 1;
00049d   c080     bset    0x80, 0          	BSET	_flag1,0
                                           ;	.line	331; "MC32F7361.c"	T0DATA = 115;
00049e   3c73     movai   0x73             	MOVAI	0x73
00049f   579b     movra   0x19b            	MOVRA	_T0DATA
                                           ;	.line	332; "MC32F7361.c"	T1DATA = 115; //  89.9%
0004a0   3c73     movai   0x73             	MOVAI	0x73
0004a1   579f     movra   0x19f            	MOVRA	_T1DATA
                                           ;	.line	335; "MC32F7361.c"	mode_flag = MODE_1; //  MODE_2
0004a2   7678     clrr    0x78             	CLRR	_mode_flag
                                           ;	.line	338; "MC32F7361.c"	PWM0EC = 1;
0004a3   cd98     bset    0x198, 0x6       	BSET	_T0CRbits,6
0004a4   a4ac     goto    0x4ac            	GOTO	_00251_DS_
                                           _00238_DS_
                                           ;	.line	343; "MC32F7361.c"	LED_WORKING_OFF(); // 
0004a5   c994     bset    0x194, 0x4       	BSET	_IOP1bits,4
                                           ;	.line	344; "MC32F7361.c"	HEATING_OFF();     // 
0004a6   d594     bclr    0x194, 0x2       	BCLR	_IOP1bits,2
                                           ;	.line	345; "MC32F7361.c"	FLAG_IS_DEVICE_OPEN = 0;
0004a7   d080     bclr    0x80, 0          	BCLR	_flag1,0
                                           ;	.line	346; "MC32F7361.c"	FLAG_IS_HEATING = 0;
0004a8   d280     bclr    0x80, 0x1        	BCLR	_flag1,1
                                           ;	.line	348; "MC32F7361.c"	mode_flag = MODE_1; //  MODE_2
0004a9   7678     clrr    0x78             	CLRR	_mode_flag
                                           ;	.line	351; "MC32F7361.c"	PWM0EC = 0;
0004aa   dd98     bclr    0x198, 0x6       	BCLR	_T0CRbits,6
                                           ;	.line	352; "MC32F7361.c"	PWM1EC = 0;
0004ab   dd9c     bclr    0x19c, 0x6       	BCLR	_T1CRbits,6
                                           _00251_DS_
                                           ;	.line	357; "MC32F7361.c"	delay_ms(1);
0004ac   3c01     movai   0x1              	MOVAI	0x01
0004ad   5606     movra   0x6              	MOVRA	STK00
0004ae   3c00     movai   0                	MOVAI	0x00
0004af   863c     call    0x63c            	CALL	_delay_ms
0004b0   a47d     goto    0x47d            	GOTO	_00252_DS_
                                           _00254_DS_
                                           ;	.line	360; "MC32F7361.c"	flag_is_key_mode_hold = 0; // 
0004b1   7626     clrr    0x26             	CLRR	_key_scan_handle_flag_is_key_mode_hold_131072_34
                                           ;;unsigned compare: left < lit(0x2EE=750), size=2
                                           ;	.line	362; "MC32F7361.c"	if (press_cnt < 750)
0004b2   3c02     movai   0x2              	MOVAI	0x02
0004b3   480e     rsubar  0xe              	RSUBAR	r0x103E
0004b4   e587     jbset   0x187, 0x2       	JBSET	PFLAG,2
0004b5   a4b8     goto    0x4b8            	GOTO	_00392_DS_
0004b6   3cee     movai   0xee             	MOVAI	0xee
0004b7   480d     rsubar  0xd              	RSUBAR	r0x103D
                                           _00392_DS_
0004b8   f187     jbclr   0x187, 0         	JBCLR	PFLAG,0
0004b9   a50b     goto    0x50b            	GOTO	_00296_DS_
                                           ;;genSkipc:3291: created from rifx:013B5EFC
                                           ;	.line	365; "MC32F7361.c"	if (FLAG_IS_DEVICE_OPEN)
0004ba   e080     jbset   0x80, 0          	JBSET	_flag1,0
0004bb   a50b     goto    0x50b            	GOTO	_00296_DS_
                                           ;	.line	368; "MC32F7361.c"	if (FLAG_IS_DEVICE_OPEN)
0004bc   e080     jbset   0x80, 0          	JBSET	_flag1,0
0004bd   a50b     goto    0x50b            	GOTO	_00296_DS_
                                           ;	.line	371; "MC32F7361.c"	if (MODE_1 == mode_flag)
0004be   3c00     movai   0                	MOVAI	0x00
0004bf   5c78     orar    0x78             	ORAR	_mode_flag
0004c0   e587     jbset   0x187, 0x2       	JBSET	PFLAG,2
0004c1   a4c9     goto    0x4c9            	GOTO	_00261_DS_
                                           ;	.line	374; "MC32F7361.c"	T0DATA = 255;
0004c2   3cff     movai   0xff             	MOVAI	0xff
0004c3   579b     movra   0x19b            	MOVRA	_T0DATA
                                           ;	.line	375; "MC32F7361.c"	T1DATA = 255; // 100%TxLOAD
0004c4   3cff     movai   0xff             	MOVAI	0xff
0004c5   579f     movra   0x19f            	MOVRA	_T1DATA
                                           ;	.line	377; "MC32F7361.c"	mode_flag = MODE_2;
0004c6   3c01     movai   0x1              	MOVAI	0x01
0004c7   5678     movra   0x78             	MOVRA	_mode_flag
0004c8   a50b     goto    0x50b            	GOTO	_00296_DS_
                                           _00261_DS_
                                           ;	.line	379; "MC32F7361.c"	else if (MODE_2 == mode_flag)
0004c9   5878     movar   0x78             	MOVAR	_mode_flag
0004ca   3901     xorai   0x1              	XORAI	0x01
0004cb   e587     jbset   0x187, 0x2       	JBSET	PFLAG,2
0004cc   a4d4     goto    0x4d4            	GOTO	_00258_DS_
                                           ;	.line	382; "MC32F7361.c"	T0DATA = 103;
0004cd   3c67     movai   0x67             	MOVAI	0x67
0004ce   579b     movra   0x19b            	MOVRA	_T0DATA
                                           ;	.line	383; "MC32F7361.c"	T1DATA = 103; // 80.5%
0004cf   3c67     movai   0x67             	MOVAI	0x67
0004d0   579f     movra   0x19f            	MOVRA	_T1DATA
                                           ;	.line	385; "MC32F7361.c"	mode_flag = MODE_3;
0004d1   3c02     movai   0x2              	MOVAI	0x02
0004d2   5678     movra   0x78             	MOVRA	_mode_flag
0004d3   a50b     goto    0x50b            	GOTO	_00296_DS_
                                           _00258_DS_
                                           ;	.line	387; "MC32F7361.c"	else if (MODE_3 == mode_flag)
0004d4   5878     movar   0x78             	MOVAR	_mode_flag
0004d5   3902     xorai   0x2              	XORAI	0x02
0004d6   e587     jbset   0x187, 0x2       	JBSET	PFLAG,2
0004d7   a50b     goto    0x50b            	GOTO	_00296_DS_
                                           ;	.line	390; "MC32F7361.c"	T0DATA = 115;
0004d8   3c73     movai   0x73             	MOVAI	0x73
0004d9   579b     movra   0x19b            	MOVRA	_T0DATA
                                           ;	.line	391; "MC32F7361.c"	T1DATA = 115; // 89.9%
0004da   3c73     movai   0x73             	MOVAI	0x73
0004db   579f     movra   0x19f            	MOVRA	_T1DATA
                                           ;	.line	392; "MC32F7361.c"	mode_flag = MODE_1;
0004dc   7678     clrr    0x78             	CLRR	_mode_flag
0004dd   a50b     goto    0x50b            	GOTO	_00296_DS_
                                           _00294_DS_
                                           ;	.line	399; "MC32F7361.c"	else if (0 == KEY_HEAT_PIN)
0004de   f394     jbclr   0x194, 0x1       	JBCLR	_IOP1bits,1
0004df   a50b     goto    0x50b            	GOTO	_00296_DS_
                                           ;	.line	403; "MC32F7361.c"	delay_ms(20); // 
0004e0   3c14     movai   0x14             	MOVAI	0x14
0004e1   5606     movra   0x6              	MOVRA	STK00
0004e2   3c00     movai   0                	MOVAI	0x00
0004e3   863c     call    0x63c            	CALL	_delay_ms
                                           ;	.line	404; "MC32F7361.c"	if (0 == KEY_HEAT_PIN)
0004e4   f394     jbclr   0x194, 0x1       	JBCLR	_IOP1bits,1
0004e5   a50b     goto    0x50b            	GOTO	_00296_DS_
                                           ;	.line	407; "MC32F7361.c"	while (0 == KEY_HEAT_PIN)
0004e6   760d     clrr    0xd              	CLRR	r0x103D
0004e7   760e     clrr    0xe              	CLRR	r0x103E
                                           _00273_DS_
0004e8   f394     jbclr   0x194, 0x1       	JBCLR	_IOP1bits,1
0004e9   a4fa     goto    0x4fa            	GOTO	_00275_DS_
                                           ;;unsigned compare: left < lit(0xFFFF=65535), size=2
                                           ;	.line	410; "MC32F7361.c"	if (press_cnt < 65535)
0004ea   3cff     movai   0xff             	MOVAI	0xff
0004eb   480e     rsubar  0xe              	RSUBAR	r0x103E
0004ec   e587     jbset   0x187, 0x2       	JBSET	PFLAG,2
0004ed   a4f0     goto    0x4f0            	GOTO	_00393_DS_
0004ee   3cff     movai   0xff             	MOVAI	0xff
0004ef   480d     rsubar  0xd              	RSUBAR	r0x103D
                                           _00393_DS_
0004f0   f187     jbclr   0x187, 0         	JBCLR	PFLAG,0
0004f1   a4f5     goto    0x4f5            	GOTO	_00272_DS_
                                           ;;genSkipc:3291: created from rifx:013B5EFC
                                           ;	.line	411; "MC32F7361.c"	press_cnt++;
0004f2   660d     incr    0xd              	INCR	r0x103D
0004f3   f587     jbclr   0x187, 0x2       	JBCLR	PFLAG,2
0004f4   660e     incr    0xe              	INCR	r0x103E
                                           _00272_DS_
                                           ;	.line	412; "MC32F7361.c"	delay_ms(1);
0004f5   3c01     movai   0x1              	MOVAI	0x01
0004f6   5606     movra   0x6              	MOVRA	STK00
0004f7   3c00     movai   0                	MOVAI	0x00
0004f8   863c     call    0x63c            	CALL	_delay_ms
0004f9   a4e8     goto    0x4e8            	GOTO	_00273_DS_
                                           ;;unsigned compare: left < lit(0x2EE=750), size=2
                                           _00275_DS_
                                           ;	.line	415; "MC32F7361.c"	if (press_cnt < 750)
0004fa   3c02     movai   0x2              	MOVAI	0x02
0004fb   480e     rsubar  0xe              	RSUBAR	r0x103E
0004fc   e587     jbset   0x187, 0x2       	JBSET	PFLAG,2
0004fd   a500     goto    0x500            	GOTO	_00394_DS_
0004fe   3cee     movai   0xee             	MOVAI	0xee
0004ff   480d     rsubar  0xd              	RSUBAR	r0x103D
                                           _00394_DS_
000500   f187     jbclr   0x187, 0         	JBCLR	PFLAG,0
000501   a50b     goto    0x50b            	GOTO	_00296_DS_
                                           ;;genSkipc:3291: created from rifx:013B5EFC
                                           ;	.line	418; "MC32F7361.c"	if (FLAG_IS_DEVICE_OPEN)
000502   e080     jbset   0x80, 0          	JBSET	_flag1,0
000503   a50b     goto    0x50b            	GOTO	_00296_DS_
                                           ;	.line	421; "MC32F7361.c"	if (0 == FLAG_IS_HEATING)
000504   f280     jbclr   0x80, 0x1        	JBCLR	_flag1,1
000505   a509     goto    0x509            	GOTO	_00279_DS_
                                           ;	.line	423; "MC32F7361.c"	HEATING_ON(); // 
000506   c594     bset    0x194, 0x2       	BSET	_IOP1bits,2
                                           ;	.line	424; "MC32F7361.c"	FLAG_IS_HEATING = 1;
000507   c280     bset    0x80, 0x1        	BSET	_flag1,1
000508   a50b     goto    0x50b            	GOTO	_00296_DS_
                                           _00279_DS_
                                           ;	.line	428; "MC32F7361.c"	HEATING_OFF(); // 
000509   d594     bclr    0x194, 0x2       	BCLR	_IOP1bits,2
                                           ;	.line	429; "MC32F7361.c"	FLAG_IS_HEATING = 0;
00050a   d280     bclr    0x80, 0x1        	BCLR	_flag1,1
                                           _00296_DS_
                                           ;	.line	435; "MC32F7361.c"	}
00050b   000c     return                   	RETURN	
                                           ; exit point of _key_scan_handle
                                           
                                           ;***
                                           ;  pBlock Stats: dbName = C
                                           ;***
                                           ;entry:  _Sys_Init	;Function start
                                           ; 2 exit points
                                           ;has an exit
                                           ;functions called:
                                           ;   _CLR_RAM
                                           ;   _IO_Init
                                           ;   _timer0_pwm_config
                                           ;   _timer1_pwm_config
                                           ;   _timer2_pwm_config
                                           ;   _key_config
                                           ;   _adc_config
                                           ;   _delay_ms
                                           ;   _CLR_RAM
                                           ;   _IO_Init
                                           ;   _timer0_pwm_config
                                           ;   _timer1_pwm_config
                                           ;   _timer2_pwm_config
                                           ;   _key_config
                                           ;   _adc_config
                                           ;   _delay_ms
                                           ;1 compiler assigned register :
                                           ;   STK00
                                           ;; Starting pCode block
                                           _Sys_Init	;Function start
                                           ; 2 exit points
                                           ;	.line	273; "MC32F7361.c"	GIE = 0;
00050c   df88     bclr    0x188, 0x7       	BCLR	_MCRbits,7
                                           ;	.line	274; "MC32F7361.c"	CLR_RAM();
00050d   8630     call    0x630            	CALL	_CLR_RAM
                                           ;	.line	275; "MC32F7361.c"	IO_Init();
00050e   861b     call    0x61b            	CALL	_IO_Init
                                           ;	.line	277; "MC32F7361.c"	timer0_pwm_config();
00050f   8607     call    0x607            	CALL	_timer0_pwm_config
                                           ;	.line	278; "MC32F7361.c"	timer1_pwm_config();
000510   85ff     call    0x5ff            	CALL	_timer1_pwm_config
                                           ;	.line	279; "MC32F7361.c"	timer2_pwm_config();
000511   85f5     call    0x5f5            	CALL	_timer2_pwm_config
                                           ;	.line	283; "MC32F7361.c"	key_config();
000512   85ea     call    0x5ea            	CALL	_key_config
                                           ;	.line	284; "MC32F7361.c"	adc_config();
000513   860f     call    0x60f            	CALL	_adc_config
                                           ;	.line	285; "MC32F7361.c"	delay_ms(100); // 
000514   3c64     movai   0x64             	MOVAI	0x64
000515   5606     movra   0x6              	MOVRA	STK00
000516   3c00     movai   0                	MOVAI	0x00
000517   863c     call    0x63c            	CALL	_delay_ms
                                           ;	.line	287; "MC32F7361.c"	GIE = 1;
000518   cf88     bset    0x188, 0x7       	BSET	_MCRbits,7
                                           ;	.line	288; "MC32F7361.c"	}
000519   000c     return                   	RETURN	
                                           ; exit point of _Sys_Init
                                           
                                           ;***
                                           ;  pBlock Stats: dbName = C
                                           ;***
                                           ;entry:  _adc_get_val_once	;Function start
                                           ; 2 exit points
                                           ;has an exit
                                           ;7 compiler assigned registers:
                                           ;   r0x1037
                                           ;   r0x1038
                                           ;   r0x1039
                                           ;   r0x103A
                                           ;   r0x103B
                                           ;   r0x103C
                                           ;   STK00
                                           ;; Starting pCode block
                                           _adc_get_val_once	;Function start
                                           ; 2 exit points
                                           ;	.line	234; "MC32F7361.c"	ADEOC = 0; // ADCAD
00051a   d3b0     bclr    0x1b0, 0x1       	BCLR	_ADCR0bits,1
                                           _00224_DS_
                                           ;	.line	235; "MC32F7361.c"	while (!ADEOC)
00051b   e3b0     jbset   0x1b0, 0x1       	JBSET	_ADCR0bits,1
00051c   a51b     goto    0x51b            	GOTO	_00224_DS_
                                           ;	.line	237; "MC32F7361.c"	g_temp_value = ADRH; // 
00051d   59b4     movar   0x1b4            	MOVAR	_ADRH
00051e   5608     movra   0x8              	MOVRA	r0x1037
00051f   7607     clrr    0x7              	CLRR	r0x1038
                                           ;	.line	238; "MC32F7361.c"	g_temp_value = g_temp_value << 4 | (ADRL & 0x0F);
000520   4407     swapar  0x7              	SWAPAR	r0x1038
000521   3ef0     andai   0xf0             	ANDAI	0xf0
000522   5609     movra   0x9              	MOVRA	r0x1039
000523   4408     swapar  0x8              	SWAPAR	r0x1037
000524   560a     movra   0xa              	MOVRA	r0x103A
000525   3e0f     andai   0xf              	ANDAI	0x0f
000526   5e09     orra    0x9              	ORRA	r0x1039
000527   420a     xorra   0xa              	XORRA	r0x103A
000528   59b5     movar   0x1b5            	MOVAR	_ADRL
000529   5608     movra   0x8              	MOVRA	r0x1037
00052a   7607     clrr    0x7              	CLRR	r0x1038
00052b   3c0f     movai   0xf              	MOVAI	0x0f
00052c   7a08     andra   0x8              	ANDRA	r0x1037
00052d   7607     clrr    0x7              	CLRR	r0x1038
                                           ;;101	MOVAR	r0x1037
                                           ;;99	MOVRA	r0x103B
                                           ;;104	MOVAR	r0x1038
                                           ;;102	MOVRA	r0x103C
                                           ;;100	MOVAR	r0x103B
00052e   5808     movar   0x8              	MOVAR	r0x1037
00052f   5e0a     orra    0xa              	ORRA	r0x103A
                                           ;;103	MOVAR	r0x103C
000530   3c00     movai   0                	MOVAI	0x00
000531   5e09     orra    0x9              	ORRA	r0x1039
                                           ;	.line	262; "MC32F7361.c"	return g_temp_value;
000532   580a     movar   0xa              	MOVAR	r0x103A
000533   5606     movra   0x6              	MOVRA	STK00
000534   5809     movar   0x9              	MOVAR	r0x1039
                                           ;	.line	263; "MC32F7361.c"	}
000535   000c     return                   	RETURN	
                                           ; exit point of _adc_get_val_once
                                           
                                           ;***
                                           ;  pBlock Stats: dbName = C
                                           ;***
                                           ;entry:  _adc_get_val	;Function start
                                           ; 2 exit points
                                           ;has an exit
                                           ;16 compiler assigned registers:
                                           ;   r0x1037
                                           ;   r0x1038
                                           ;   r0x1039
                                           ;   r0x103A
                                           ;   r0x103B
                                           ;   r0x103C
                                           ;   r0x103D
                                           ;   r0x103E
                                           ;   r0x103F
                                           ;   r0x1040
                                           ;   r0x1041
                                           ;   r0x1042
                                           ;   r0x1043
                                           ;   r0x1044
                                           ;   r0x1045
                                           ;   STK00
                                           ;; Starting pCode block
                                           _adc_get_val	;Function start
                                           ; 2 exit points
                                           ;	.line	181; "MC32F7361.c"	u32 g_tmpbuff = 0;
000536   7608     clrr    0x8              	CLRR	r0x1037
000537   7607     clrr    0x7              	CLRR	r0x1038
000538   7609     clrr    0x9              	CLRR	r0x1039
000539   760a     clrr    0xa              	CLRR	r0x103A
                                           ;	.line	182; "MC32F7361.c"	u16 g_adcmax = 0;
00053a   760b     clrr    0xb              	CLRR	r0x103B
00053b   760c     clrr    0xc              	CLRR	r0x103C
                                           ;	.line	183; "MC32F7361.c"	u16 g_adcmin = 0xFFFF;
00053c   3cff     movai   0xff             	MOVAI	0xff
00053d   560d     movra   0xd              	MOVRA	r0x103D
00053e   560e     movra   0xe              	MOVRA	r0x103E
                                           ;	.line	186; "MC32F7361.c"	for (i = 0; i < 20; i++)
00053f   760f     clrr    0xf              	CLRR	r0x103F
                                           _00178_DS_
                                           ;	.line	188; "MC32F7361.c"	ADEOC = 0; // ADCAD
000540   d3b0     bclr    0x1b0, 0x1       	BCLR	_ADCR0bits,1
                                           _00167_DS_
                                           ;	.line	189; "MC32F7361.c"	while (!ADEOC)
000541   e3b0     jbset   0x1b0, 0x1       	JBSET	_ADCR0bits,1
000542   a541     goto    0x541            	GOTO	_00167_DS_
                                           ;	.line	191; "MC32F7361.c"	g_temp_value = ADRH; // 
000543   59b4     movar   0x1b4            	MOVAR	_ADRH
000544   5610     movra   0x10             	MOVRA	r0x1040
000545   7611     clrr    0x11             	CLRR	r0x1041
                                           ;	.line	192; "MC32F7361.c"	g_temp_value = g_temp_value << 4 | (ADRL & 0x0F);
000546   4411     swapar  0x11             	SWAPAR	r0x1041
000547   3ef0     andai   0xf0             	ANDAI	0xf0
000548   5613     movra   0x13             	MOVRA	r0x1042
000549   4410     swapar  0x10             	SWAPAR	r0x1040
00054a   5612     movra   0x12             	MOVRA	r0x1043
00054b   3e0f     andai   0xf              	ANDAI	0x0f
00054c   5e13     orra    0x13             	ORRA	r0x1042
00054d   4212     xorra   0x12             	XORRA	r0x1043
00054e   59b5     movar   0x1b5            	MOVAR	_ADRL
00054f   5610     movra   0x10             	MOVRA	r0x1040
000550   7611     clrr    0x11             	CLRR	r0x1041
000551   3c0f     movai   0xf              	MOVAI	0x0f
000552   7a10     andra   0x10             	ANDRA	r0x1040
000553   7611     clrr    0x11             	CLRR	r0x1041
                                           ;;120	MOVAR	r0x1040
000554   3c00     movai   0                	MOVAI	0x00
000555   5615     movra   0x15             	MOVRA	r0x1045
                                           ;;119	MOVAR	r0x1044
000556   5810     movar   0x10             	MOVAR	r0x1040
000557   5614     movra   0x14             	MOVRA	r0x1044
000558   5c12     orar    0x12             	ORAR	r0x1043
000559   5610     movra   0x10             	MOVRA	r0x1040
00055a   5815     movar   0x15             	MOVAR	r0x1045
00055b   5c13     orar    0x13             	ORAR	r0x1042
00055c   5611     movra   0x11             	MOVRA	r0x1041
                                           ;;unsigned compare: left < lit(0x2=2), size=1
                                           ;	.line	193; "MC32F7361.c"	if (i < 2)
00055d   3c02     movai   0x2              	MOVAI	0x02
00055e   480f     rsubar  0xf              	RSUBAR	r0x103F
00055f   e187     jbset   0x187, 0         	JBSET	PFLAG,0
000560   a58b     goto    0x58b            	GOTO	_00176_DS_
                                           ;;genSkipc:3291: created from rifx:013B5EFC
                                           ;	.line	195; "MC32F7361.c"	if (g_temp_value > g_adcmax)
000561   5811     movar   0x11             	MOVAR	r0x1041
000562   480c     rsubar  0xc              	RSUBAR	r0x103C
000563   e587     jbset   0x187, 0x2       	JBSET	PFLAG,2
000564   a567     goto    0x567            	GOTO	_00218_DS_
000565   5810     movar   0x10             	MOVAR	r0x1040
000566   480b     rsubar  0xb              	RSUBAR	r0x103B
                                           _00218_DS_
000567   f187     jbclr   0x187, 0         	JBCLR	PFLAG,0
000568   a56d     goto    0x56d            	GOTO	_00173_DS_
                                           ;;genSkipc:3291: created from rifx:013B5EFC
                                           ;	.line	196; "MC32F7361.c"	g_adcmax = g_temp_value; // 
000569   5810     movar   0x10             	MOVAR	r0x1040
00056a   560b     movra   0xb              	MOVRA	r0x103B
00056b   5811     movar   0x11             	MOVAR	r0x1041
00056c   560c     movra   0xc              	MOVRA	r0x103C
                                           _00173_DS_
                                           ;	.line	197; "MC32F7361.c"	if (g_temp_value < g_adcmin)
00056d   580e     movar   0xe              	MOVAR	r0x103E
00056e   4811     rsubar  0x11             	RSUBAR	r0x1041
00056f   e587     jbset   0x187, 0x2       	JBSET	PFLAG,2
000570   a573     goto    0x573            	GOTO	_00219_DS_
000571   580d     movar   0xd              	MOVAR	r0x103D
000572   4810     rsubar  0x10             	RSUBAR	r0x1040
                                           _00219_DS_
000573   f187     jbclr   0x187, 0         	JBCLR	PFLAG,0
000574   a579     goto    0x579            	GOTO	_00175_DS_
                                           ;;genSkipc:3291: created from rifx:013B5EFC
                                           ;	.line	198; "MC32F7361.c"	g_adcmin = g_temp_value; // 
000575   5810     movar   0x10             	MOVAR	r0x1040
000576   560d     movra   0xd              	MOVRA	r0x103D
000577   5811     movar   0x11             	MOVAR	r0x1041
000578   560e     movra   0xe              	MOVRA	r0x103E
                                           ;;116	MOVAR	r0x1040
                                           ;;118	MOVAR	r0x1041
                                           _00175_DS_
                                           ;	.line	199; "MC32F7361.c"	g_tmpbuff += g_temp_value;
000579   7614     clrr    0x14             	CLRR	r0x1044
00057a   7615     clrr    0x15             	CLRR	r0x1045
                                           ;;115	MOVAR	r0x1043
00057b   5810     movar   0x10             	MOVAR	r0x1040
00057c   5612     movra   0x12             	MOVRA	r0x1043
00057d   7e08     addra   0x8              	ADDRA	r0x1037
                                           ;;117	MOVAR	r0x1042
00057e   5811     movar   0x11             	MOVAR	r0x1041
00057f   5613     movra   0x13             	MOVRA	r0x1042
000580   f187     jbclr   0x187, 0         	JBCLR	PFLAG,0
000581   6013     jzar    0x13             	JZAR	r0x1042
000582   7e07     addra   0x7              	ADDRA	r0x1038
000583   5814     movar   0x14             	MOVAR	r0x1044
000584   f187     jbclr   0x187, 0         	JBCLR	PFLAG,0
000585   6014     jzar    0x14             	JZAR	r0x1044
000586   7e09     addra   0x9              	ADDRA	r0x1039
000587   5815     movar   0x15             	MOVAR	r0x1045
000588   f187     jbclr   0x187, 0         	JBCLR	PFLAG,0
000589   6015     jzar    0x15             	JZAR	r0x1045
00058a   7e0a     addra   0xa              	ADDRA	r0x103A
                                           _00176_DS_
                                           ;	.line	186; "MC32F7361.c"	for (i = 0; i < 20; i++)
00058b   660f     incr    0xf              	INCR	r0x103F
                                           ;;unsigned compare: left < lit(0x14=20), size=1
00058c   3c14     movai   0x14             	MOVAI	0x14
00058d   480f     rsubar  0xf              	RSUBAR	r0x103F
00058e   e187     jbset   0x187, 0         	JBSET	PFLAG,0
00058f   a540     goto    0x540            	GOTO	_00178_DS_
                                           ;;genSkipc:3291: created from rifx:013B5EFC
                                           ;;114	MOVAR	r0x103B
                                           ;	.line	201; "MC32F7361.c"	g_tmpbuff -= g_adcmax;           // 
000590   580c     movar   0xc              	MOVAR	r0x103C
000591   5610     movra   0x10             	MOVRA	r0x1040
000592   7611     clrr    0x11             	CLRR	r0x1041
000593   7612     clrr    0x12             	CLRR	r0x1043
                                           ;;113	MOVAR	r0x103F
000594   580b     movar   0xb              	MOVAR	r0x103B
000595   560f     movra   0xf              	MOVRA	r0x103F
000596   4808     rsubar  0x8              	RSUBAR	r0x1037
000597   560b     movra   0xb              	MOVRA	r0x103B
000598   5807     movar   0x7              	MOVAR	r0x1038
000599   560c     movra   0xc              	MOVRA	r0x103C
00059a   5810     movar   0x10             	MOVAR	r0x1040
00059b   e187     jbset   0x187, 0         	JBSET	PFLAG,0
00059c   6010     jzar    0x10             	JZAR	r0x1040
00059d   4a0c     rsubra  0xc              	RSUBRA	r0x103C
00059e   5809     movar   0x9              	MOVAR	r0x1039
00059f   5613     movra   0x13             	MOVRA	r0x1042
0005a0   5811     movar   0x11             	MOVAR	r0x1041
0005a1   e187     jbset   0x187, 0         	JBSET	PFLAG,0
0005a2   6011     jzar    0x11             	JZAR	r0x1041
0005a3   4a13     rsubra  0x13             	RSUBRA	r0x1042
0005a4   5812     movar   0x12             	MOVAR	r0x1043
0005a5   e187     jbset   0x187, 0         	JBSET	PFLAG,0
0005a6   6412     incar   0x12             	INCAR	r0x1043
0005a7   480a     rsubar  0xa              	RSUBAR	r0x103A
0005a8   5614     movra   0x14             	MOVRA	r0x1044
                                           ;;106	MOVAR	r0x103D
                                           ;;108	MOVAR	r0x103E
                                           ;	.line	202; "MC32F7361.c"	g_tmpbuff -= g_adcmin;           // 
0005a9   7609     clrr    0x9              	CLRR	r0x1039
0005aa   760a     clrr    0xa              	CLRR	r0x103A
                                           ;;105	MOVAR	r0x1037
0005ab   580d     movar   0xd              	MOVAR	r0x103D
0005ac   5608     movra   0x8              	MOVRA	r0x1037
0005ad   4a0b     rsubra  0xb              	RSUBRA	r0x103B
                                           ;;107	MOVAR	r0x1038
0005ae   580e     movar   0xe              	MOVAR	r0x103E
0005af   5607     movra   0x7              	MOVRA	r0x1038
0005b0   e187     jbset   0x187, 0         	JBSET	PFLAG,0
0005b1   6007     jzar    0x7              	JZAR	r0x1038
0005b2   4a0c     rsubra  0xc              	RSUBRA	r0x103C
0005b3   5809     movar   0x9              	MOVAR	r0x1039
0005b4   e187     jbset   0x187, 0         	JBSET	PFLAG,0
0005b5   6009     jzar    0x9              	JZAR	r0x1039
0005b6   4a13     rsubra  0x13             	RSUBRA	r0x1042
0005b7   580a     movar   0xa              	MOVAR	r0x103A
0005b8   e187     jbset   0x187, 0         	JBSET	PFLAG,0
0005b9   600a     jzar    0xa              	JZAR	r0x103A
0005ba   4a14     rsubra  0x14             	RSUBRA	r0x1044
                                           ;	.line	203; "MC32F7361.c"	g_temp_value = (g_tmpbuff >> 4); // 16
0005bb   440b     swapar  0xb              	SWAPAR	r0x103B
0005bc   3e0f     andai   0xf              	ANDAI	0x0f
0005bd   5608     movra   0x8              	MOVRA	r0x1037
0005be   440c     swapar  0xc              	SWAPAR	r0x103C
0005bf   5607     movra   0x7              	MOVRA	r0x1038
0005c0   3ef0     andai   0xf0             	ANDAI	0xf0
0005c1   5e08     orra    0x8              	ORRA	r0x1037
0005c2   4207     xorra   0x7              	XORRA	r0x1038
0005c3   4413     swapar  0x13             	SWAPAR	r0x1042
0005c4   5609     movra   0x9              	MOVRA	r0x1039
0005c5   3ef0     andai   0xf0             	ANDAI	0xf0
0005c6   5e07     orra    0x7              	ORRA	r0x1038
0005c7   4209     xorra   0x9              	XORRA	r0x1039
0005c8   4414     swapar  0x14             	SWAPAR	r0x1044
0005c9   560a     movra   0xa              	MOVRA	r0x103A
0005ca   3ef0     andai   0xf0             	ANDAI	0xf0
0005cb   5e09     orra    0x9              	ORRA	r0x1039
0005cc   420a     xorra   0xa              	XORRA	r0x103A
                                           ;;110	MOVAR	r0x1037
                                           ;;112	MOVAR	r0x1038
                                           ;;109	MOVAR	r0x103B
                                           ;	.line	227; "MC32F7361.c"	return g_temp_value;
0005cd   5808     movar   0x8              	MOVAR	r0x1037
0005ce   560b     movra   0xb              	MOVRA	r0x103B
0005cf   5606     movra   0x6              	MOVRA	STK00
                                           ;;111	MOVAR	r0x103C
0005d0   5807     movar   0x7              	MOVAR	r0x1038
0005d1   560c     movra   0xc              	MOVRA	r0x103C
                                           ;	.line	228; "MC32F7361.c"	}
0005d2   000c     return                   	RETURN	
                                           ; exit point of _adc_get_val
                                           
                                           ;***
                                           ;  pBlock Stats: dbName = C
                                           ;***
                                           ;entry:  _adc_sel_pin	;Function start
                                           ; 2 exit points
                                           ;has an exit
                                           ;functions called:
                                           ;   _delay_ms
                                           ;   _delay_ms
                                           ;2 compiler assigned registers:
                                           ;   r0x103D
                                           ;   STK00
                                           ;; Starting pCode block
                                           _adc_sel_pin	;Function start
                                           ; 2 exit points
                                           ;	.line	154; "MC32F7361.c"	void adc_sel_pin(u8 adc_pin)
0005d3   560d     movra   0xd              	MOVRA	r0x103D
                                           ;	.line	157; "MC32F7361.c"	switch (adc_pin)
0005d4   580d     movar   0xd              	MOVAR	r0x103D
0005d5   3901     xorai   0x1              	XORAI	0x01
0005d6   e587     jbset   0x187, 0x2       	JBSET	PFLAG,2
0005d7   a5d9     goto    0x5d9            	GOTO	_00161_DS_
0005d8   a5df     goto    0x5df            	GOTO	_00147_DS_
                                           _00161_DS_
0005d9   580d     movar   0xd              	MOVAR	r0x103D
0005da   3902     xorai   0x2              	XORAI	0x02
0005db   e587     jbset   0x187, 0x2       	JBSET	PFLAG,2
0005dc   a5de     goto    0x5de            	GOTO	_00162_DS_
0005dd   a5e2     goto    0x5e2            	GOTO	_00148_DS_
                                           _00162_DS_
0005de   a5e5     goto    0x5e5            	GOTO	_00150_DS_
                                           _00147_DS_
                                           ;	.line	160; "MC32F7361.c"	ADCR0 &= ~(0x0F << 4); // 
0005df   3c0f     movai   0xf              	MOVAI	0x0f
0005e0   7bb0     andra   0x1b0            	ANDRA	_ADCR0
                                           ;	.line	162; "MC32F7361.c"	break;
0005e1   a5e5     goto    0x5e5            	GOTO	_00150_DS_
                                           _00148_DS_
                                           ;	.line	165; "MC32F7361.c"	ADCR0 &= ~(0x0F << 4); // 
0005e2   3c0f     movai   0xf              	MOVAI	0x0f
0005e3   7bb0     andra   0x1b0            	ANDRA	_ADCR0
                                           ;	.line	166; "MC32F7361.c"	ADCR0 |= 0x01 << 4;    // AIN1--P02;
0005e4   c9b0     bset    0x1b0, 0x4       	BSET	_ADCR0,4
                                           _00150_DS_
                                           ;	.line	173; "MC32F7361.c"	delay_ms(1); // adcadc
0005e5   3c01     movai   0x1              	MOVAI	0x01
0005e6   5606     movra   0x6              	MOVRA	STK00
0005e7   3c00     movai   0                	MOVAI	0x00
0005e8   863c     call    0x63c            	CALL	_delay_ms
                                           ;	.line	174; "MC32F7361.c"	}
0005e9   000c     return                   	RETURN	
                                           ; exit point of _adc_sel_pin
                                           
                                           ;***
                                           ;  pBlock Stats: dbName = C
                                           ;***
                                           ;entry:  _key_config	;Function start
                                           ; 2 exit points
                                           ;has an exit
                                           ;; Starting pCode block
                                           _key_config	;Function start
                                           ; 2 exit points
                                           ;	.line	137; "MC32F7361.c"	P13PU = 1; // 
0005ea   c796     bset    0x196, 0x3       	BSET	_PUP1bits,3
                                           ;	.line	138; "MC32F7361.c"	P13OE = 0; // 
0005eb   d795     bclr    0x195, 0x3       	BCLR	_OEP1bits,3
                                           ;	.line	141; "MC32F7361.c"	INT0M0 = 1; // INT0M0INT0M1INT0
0005ec   c188     bset    0x188, 0         	BSET	_MCRbits,0
                                           ;	.line	142; "MC32F7361.c"	INT0M1 = 0;
0005ed   d388     bclr    0x188, 0x1       	BCLR	_MCRbits,1
                                           ;	.line	143; "MC32F7361.c"	P11PU = 1;
0005ee   c396     bset    0x196, 0x1       	BSET	_PUP1bits,1
                                           ;	.line	144; "MC32F7361.c"	P11OE = 0;
0005ef   d395     bclr    0x195, 0x1       	BCLR	_OEP1bits,1
                                           ;	.line	145; "MC32F7361.c"	INT0IF = 0; // 
0005f0   d58b     bclr    0x18b, 0x2       	BCLR	_INTFbits,2
                                           ;	.line	146; "MC32F7361.c"	INT0IE = 1; // 
0005f1   c58a     bset    0x18a, 0x2       	BSET	_INTEbits,2
                                           ;	.line	149; "MC32F7361.c"	P01PU = 1;
0005f2   c392     bset    0x192, 0x1       	BSET	_PUP0bits,1
                                           ;	.line	150; "MC32F7361.c"	P01OE = 0;
0005f3   d391     bclr    0x191, 0x1       	BCLR	_OEP0bits,1
                                           ;	.line	151; "MC32F7361.c"	}
0005f4   000c     return                   	RETURN	
                                           ; exit point of _key_config
                                           
                                           ;***
                                           ;  pBlock Stats: dbName = C
                                           ;***
                                           ;entry:  _timer2_pwm_config	;Function start
                                           ; 2 exit points
                                           ;has an exit
                                           ;; Starting pCode block
                                           _timer2_pwm_config	;Function start
                                           ; 2 exit points
                                           ;	.line	106; "MC32F7361.c"	T2CKS0 = 1;
0005f5   c7a0     bset    0x1a0, 0x3       	BSET	_T2CRbits,3
                                           ;	.line	107; "MC32F7361.c"	T2CKS1 = 0;
0005f6   d9a0     bclr    0x1a0, 0x4       	BCLR	_T2CRbits,4
                                           ;	.line	109; "MC32F7361.c"	TMRCKS0 = 0;
0005f7   d7ad     bclr    0x1ad, 0x3       	BCLR	_PWMCR1bits,3
                                           ;	.line	110; "MC32F7361.c"	TMRCKS1 = 1;
0005f8   c9ad     bset    0x1ad, 0x4       	BSET	_PWMCR1bits,4
                                           ;	.line	112; "MC32F7361.c"	T2LOAD = 209; //
0005f9   3cd1     movai   0xd1             	MOVAI	0xd1
0005fa   57a2     movra   0x1a2            	MOVRA	_T2LOAD
                                           ;	.line	113; "MC32F7361.c"	T2DATA = 0;
0005fb   77a3     clrr    0x1a3            	CLRR	_T2DATA
                                           ;	.line	114; "MC32F7361.c"	PWM2EC = 0; // PWM
0005fc   dda0     bclr    0x1a0, 0x6       	BCLR	_T2CRbits,6
                                           ;	.line	116; "MC32F7361.c"	T2EN = 1;
0005fd   cfa0     bset    0x1a0, 0x7       	BSET	_T2CRbits,7
                                           ;	.line	117; "MC32F7361.c"	}
0005fe   000c     return                   	RETURN	
                                           ; exit point of _timer2_pwm_config
                                           
                                           ;***
                                           ;  pBlock Stats: dbName = C
                                           ;***
                                           ;entry:  _timer1_pwm_config	;Function start
                                           ; 2 exit points
                                           ;has an exit
                                           ;; Starting pCode block
                                           _timer1_pwm_config	;Function start
                                           ; 2 exit points
                                           ;	.line	94; "MC32F7361.c"	T1CR |= 0x02; // 4
0005ff   c39c     bset    0x19c, 0x1       	BSET	_T1CR,1
                                           ;	.line	95; "MC32F7361.c"	T1LOAD = 128 - 1;
000600   3c7f     movai   0x7f             	MOVAI	0x7f
000601   579e     movra   0x19e            	MOVRA	_T1LOAD
                                           ;	.line	96; "MC32F7361.c"	T1DATA = 25; //  == T1DATA / T1LOAD
000602   3c19     movai   0x19             	MOVAI	0x19
000603   579f     movra   0x19f            	MOVRA	_T1DATA
                                           ;	.line	97; "MC32F7361.c"	PWM1EC = 0;  // PWM1
000604   dd9c     bclr    0x19c, 0x6       	BCLR	_T1CRbits,6
                                           ;	.line	98; "MC32F7361.c"	T1EN = 1;    // 
000605   cf9c     bset    0x19c, 0x7       	BSET	_T1CRbits,7
                                           ;	.line	99; "MC32F7361.c"	}
000606   000c     return                   	RETURN	
                                           ; exit point of _timer1_pwm_config
                                           
                                           ;***
                                           ;  pBlock Stats: dbName = C
                                           ;***
                                           ;entry:  _timer0_pwm_config	;Function start
                                           ; 2 exit points
                                           ;has an exit
                                           ;; Starting pCode block
                                           _timer0_pwm_config	;Function start
                                           ; 2 exit points
                                           ;	.line	81; "MC32F7361.c"	T0CR |= 0x02; // 4
000607   c398     bset    0x198, 0x1       	BSET	_T0CR,1
                                           ;	.line	82; "MC32F7361.c"	T0LOAD = 128 - 1;
000608   3c7f     movai   0x7f             	MOVAI	0x7f
000609   579a     movra   0x19a            	MOVRA	_T0LOAD
                                           ;	.line	83; "MC32F7361.c"	T0DATA = 25; //  == T0DATA / T0LOAD
00060a   3c19     movai   0x19             	MOVAI	0x19
00060b   579b     movra   0x19b            	MOVRA	_T0DATA
                                           ;	.line	84; "MC32F7361.c"	PWM0EC = 0;  // PWM
00060c   dd98     bclr    0x198, 0x6       	BCLR	_T0CRbits,6
                                           ;	.line	85; "MC32F7361.c"	T0EN = 1;    // 
00060d   cf98     bset    0x198, 0x7       	BSET	_T0CRbits,7
                                           ;	.line	86; "MC32F7361.c"	}
00060e   000c     return                   	RETURN	
                                           ; exit point of _timer0_pwm_config
                                           
                                           ;***
                                           ;  pBlock Stats: dbName = C
                                           ;***
                                           ;entry:  _adc_config	;Function start
                                           ; 2 exit points
                                           ;has an exit
                                           ;; Starting pCode block
                                           _adc_config	;Function start
                                           ; 2 exit points
                                           ;	.line	62; "MC32F7361.c"	P00OE = 0; // 
00060f   d191     bclr    0x191, 0         	BCLR	_OEP0bits,0
                                           ;	.line	63; "MC32F7361.c"	P00DC = 1; // 
000610   c1b6     bset    0x1b6, 0         	BSET	_P0ADCRbits,0
                                           ;	.line	66; "MC32F7361.c"	P02OE = 0; // 
000611   d591     bclr    0x191, 0x2       	BCLR	_OEP0bits,2
                                           ;	.line	67; "MC32F7361.c"	P02DC = 1; // 
000612   c5b6     bset    0x1b6, 0x2       	BSET	_P0ADCRbits,2
                                           ;	.line	69; "MC32F7361.c"	ADCR0 = 0x0A; // 12ADCADC
000613   3c0a     movai   0xa              	MOVAI	0x0a
000614   57b0     movra   0x1b0            	MOVRA	_ADCR0
                                           ;	.line	70; "MC32F7361.c"	ADCR1 = 0xE1; // 125K  3V
000615   3ce1     movai   0xe1             	MOVAI	0xe1
000616   57b1     movra   0x1b1            	MOVRA	_ADCR1
                                           ;	.line	71; "MC32F7361.c"	ADCR2 = 0xFF; // ADC15ADC
000617   3cff     movai   0xff             	MOVAI	0xff
000618   57b2     movra   0x1b2            	MOVRA	_ADCR2
                                           ;	.line	72; "MC32F7361.c"	ADEN = 1;     // ADC
000619   c1b0     bset    0x1b0, 0         	BSET	_ADCR0bits,0
                                           ;	.line	73; "MC32F7361.c"	}
00061a   000c     return                   	RETURN	
                                           ; exit point of _adc_config
                                           
                                           ;***
                                           ;  pBlock Stats: dbName = C
                                           ;***
                                           ;entry:  _IO_Init	;Function start
                                           ; 2 exit points
                                           ;has an exit
                                           ;; Starting pCode block
                                           _IO_Init	;Function start
                                           ; 2 exit points
                                           ;	.line	37; "MC32F7361.c"	IOP0 = 0x00;   // io
00061b   7790     clrr    0x190            	CLRR	_IOP0
                                           ;	.line	38; "MC32F7361.c"	OEP0 = 0x3F;   // io 1:out  0:in
00061c   3c3f     movai   0x3f             	MOVAI	0x3f
00061d   5791     movra   0x191            	MOVRA	_OEP0
                                           ;	.line	39; "MC32F7361.c"	PUP0 = 0x00;   // io   1:enable  0:disable
00061e   7792     clrr    0x192            	CLRR	_PUP0
                                           ;	.line	40; "MC32F7361.c"	PDP0 = 0x00;   // io   1:enable  0:disable
00061f   7793     clrr    0x193            	CLRR	_PDP0
                                           ;	.line	41; "MC32F7361.c"	P0ADCR = 0x00; // io  1:  0:io
000620   77b6     clrr    0x1b6            	CLRR	_P0ADCR
                                           ;	.line	43; "MC32F7361.c"	IOP1 = 0x00;   // io
000621   7794     clrr    0x194            	CLRR	_IOP1
                                           ;	.line	44; "MC32F7361.c"	OEP1 = 0xFF;   // io 1:out  0:in
000622   3cff     movai   0xff             	MOVAI	0xff
000623   5795     movra   0x195            	MOVRA	_OEP1
                                           ;	.line	45; "MC32F7361.c"	PUP1 = 0x00;   // io   1:enable  0:disable
000624   7796     clrr    0x196            	CLRR	_PUP1
                                           ;	.line	46; "MC32F7361.c"	PDP1 = 0x00;   // io   1:enable  0:disable
000625   7797     clrr    0x197            	CLRR	_PDP1
                                           ;	.line	47; "MC32F7361.c"	P1ADCR = 0x00; // io  1:  0:io
000626   77b7     clrr    0x1b7            	CLRR	_P1ADCR
                                           ;	.line	49; "MC32F7361.c"	IOP2 = 0x00; // io
000627   77b8     clrr    0x1b8            	CLRR	_IOP2
                                           ;	.line	50; "MC32F7361.c"	OEP2 = 0xFF; // io 1:out  0:in
000628   3cff     movai   0xff             	MOVAI	0xff
000629   57b9     movra   0x1b9            	MOVRA	_OEP2
                                           ;	.line	51; "MC32F7361.c"	PUP2 = 0x00; // io   1:enable  0:disable
00062a   77ba     clrr    0x1ba            	CLRR	_PUP2
                                           ;	.line	52; "MC32F7361.c"	PDP2 = 0x00; // io   1:enable  0:disablea
00062b   77bb     clrr    0x1bb            	CLRR	_PDP2
                                           ;	.line	54; "MC32F7361.c"	PMOD = 0x00;  // P00P01P13 io
00062c   77bc     clrr    0x1bc            	CLRR	_PMOD
                                           ;	.line	55; "MC32F7361.c"	DRVCR = 0x80; // 
00062d   3c80     movai   0x80             	MOVAI	0x80
00062e   578c     movra   0x18c            	MOVRA	_DRVCR
                                           ;	.line	56; "MC32F7361.c"	}
00062f   000c     return                   	RETURN	
                                           ; exit point of _IO_Init
                                           
                                           ;***
                                           ;  pBlock Stats: dbName = C
                                           ;***
                                           ;entry:  _CLR_RAM	;Function start
                                           ; 2 exit points
                                           ;has an exit
                                           ;; Starting pCode block
                                           _CLR_RAM	;Function start
                                           ; 2 exit points
                                           ;	.line	22; "MC32F7361.c"	for (FSR0 = 0; FSR0 < 0xff; FSR0++)
000630   7784     clrr    0x184            	CLRR	_FSR0
                                           ;;unsigned compare: left < lit(0xFF=255), size=1
                                           _00118_DS_
000631   3cff     movai   0xff             	MOVAI	0xff
000632   4984     rsubar  0x184            	RSUBAR	_FSR0
000633   f187     jbclr   0x187, 0         	JBCLR	PFLAG,0
000634   a638     goto    0x638            	GOTO	_00116_DS_
                                           ;;genSkipc:3291: created from rifx:013B5EFC
                                           ;	.line	24; "MC32F7361.c"	INDF0 = 0x00;
000635   7780     clrr    0x180            	CLRR	_INDF0
                                           ;	.line	22; "MC32F7361.c"	for (FSR0 = 0; FSR0 < 0xff; FSR0++)
000636   6784     incr    0x184            	INCR	_FSR0
000637   a631     goto    0x631            	GOTO	_00118_DS_
                                           _00116_DS_
                                           ;	.line	26; "MC32F7361.c"	FSR0 = 0xFF;
000638   3cff     movai   0xff             	MOVAI	0xff
000639   5784     movra   0x184            	MOVRA	_FSR0
                                           ;	.line	27; "MC32F7361.c"	INDF0 = 0x00;
00063a   7780     clrr    0x180            	CLRR	_INDF0
                                           ;	.line	28; "MC32F7361.c"	}
00063b   000c     return                   	RETURN	
                                           ; exit point of _CLR_RAM
                                           
                                           ;***
                                           ;  pBlock Stats: dbName = C
                                           ;***
                                           ;entry:  _delay_ms	;Function start
                                           ; 2 exit points
                                           ;has an exit
                                           ;7 compiler assigned registers:
                                           ;   r0x1037
                                           ;   STK00
                                           ;   r0x1038
                                           ;   r0x1039
                                           ;   r0x103A
                                           ;   r0x103B
                                           ;   r0x103C
                                           ;; Starting pCode block
                                           _delay_ms	;Function start
                                           ; 2 exit points
                                           ;	.line	265; "user.h"	void delay_ms(u16 xms)
00063c   5608     movra   0x8              	MOVRA	r0x1037
00063d   5806     movar   0x6              	MOVAR	STK00
00063e   5607     movra   0x7              	MOVRA	r0x1038
                                           _00108_DS_
                                           ;	.line	267; "user.h"	while (xms)
00063f   5807     movar   0x7              	MOVAR	r0x1038
000640   5c08     orar    0x8              	ORAR	r0x1037
000641   f587     jbclr   0x187, 0x2       	JBCLR	PFLAG,2
000642   a65b     goto    0x65b            	GOTO	_00111_DS_
                                           ;	.line	270; "user.h"	while (i--)
000643   3c3c     movai   0x3c             	MOVAI	0x3c
000644   5609     movra   0x9              	MOVRA	r0x1039
000645   3c02     movai   0x2              	MOVAI	0x02
000646   560a     movra   0xa              	MOVRA	r0x103A
                                           _00105_DS_
000647   5809     movar   0x9              	MOVAR	r0x1039
000648   560b     movra   0xb              	MOVRA	r0x103B
000649   580a     movar   0xa              	MOVAR	r0x103A
00064a   560c     movra   0xc              	MOVRA	r0x103C
00064b   3cff     movai   0xff             	MOVAI	0xff
00064c   7e09     addra   0x9              	ADDRA	r0x1039
00064d   e187     jbset   0x187, 0         	JBSET	PFLAG,0
00064e   6e0a     decr    0xa              	DECR	r0x103A
00064f   580b     movar   0xb              	MOVAR	r0x103B
000650   5c0c     orar    0xc              	ORAR	r0x103C
000651   f587     jbclr   0x187, 0x2       	JBCLR	PFLAG,2
000652   a655     goto    0x655            	GOTO	_00107_DS_
                                           ;	.line	272; "user.h"	Nop();
000653   0000     nop                      	nop	
000654   a647     goto    0x647            	GOTO	_00105_DS_
                                           _00107_DS_
                                           ;	.line	274; "user.h"	xms--; //  --while()
000655   3cff     movai   0xff             	MOVAI	0xff
000656   7e07     addra   0x7              	ADDRA	r0x1038
000657   e187     jbset   0x187, 0         	JBSET	PFLAG,0
000658   6e08     decr    0x8              	DECR	r0x1037
                                           ;	.line	278; "user.h"	__endasm;
                                           	;
000659   000e     clrwdt                   	clrwdt;
                                           	
00065a   a63f     goto    0x63f            	GOTO	_00108_DS_
                                           _00111_DS_
                                           ;	.line	280; "user.h"	}
00065b   000c     return                   	RETURN	
                                           ; exit point of _delay_ms
                                           
                                           
                                           ;	code size estimation:
                                           ;	 1605+    0 =  1605 instructions ( 3210 byte)
                                           
                                           	end
                                           ;--------------------------------------------------------
                                           ; File Created by SN-SDCC : SinoMCU ANSI-C Compiler
                                           ; Version 2.0.0 (Dec 11 2019) (MINGW32)
                                           ; This file was generated Mon Jan 06 17:52:13 2025
                                           ;--------------------------------------------------------
                                           ; MC32 port for the RISC core
                                           ;--------------------------------------------------------
                                           ;	.file	"MC32F7361.c"
                                           	list	p=7361
                                           	radix dec
                                           	include "7361.inc"
                                           ;--------------------------------------------------------
                                           ; external declarations
                                           ;--------------------------------------------------------
                                           	extern	__mullong
                                           	extern	__divulong
                                           	extern	_INDF0bits
                                           	extern	_INDF1bits
                                           	extern	_INDF2bits
                                           	extern	_HIBYTEbits
                                           	extern	_FSR0bits
                                           	extern	_FSR1bits
                                           	extern	_PCLbits
                                           	extern	_PFLAGbits
                                           	extern	_MCRbits
                                           	extern	_INDF3bits
                                           	extern	_INTEbits
                                           	extern	_INTFbits
                                           	extern	_DRVCRbits
                                           	extern	_P0KBCRbits
                                           	extern	_P1KBCRbits
                                           	extern	_P2KBCRbits
                                           	extern	_IOP0bits
                                           	extern	_OEP0bits
                                           	extern	_PUP0bits
                                           	extern	_PDP0bits
                                           	extern	_IOP1bits
                                           	extern	_OEP1bits
                                           	extern	_PUP1bits
                                           	extern	_PDP1bits
                                           	extern	_T0CRbits
                                           	extern	_T0CNTbits
                                           	extern	_T0LOADbits
                                           	extern	_T0DATAbits
                                           	extern	_T1CRbits
                                           	extern	_T1CNTbits
                                           	extern	_T1LOADbits
                                           	extern	_T1DATAbits
                                           	extern	_T2CRbits
                                           	extern	_T2CNTbits
                                           	extern	_T2LOADbits
                                           	extern	_T2DATAbits
                                           	extern	_T3CRbits
                                           	extern	_T3CNTbits
                                           	extern	_T3LOADbits
                                           	extern	_PWM0DRbits
                                           	extern	_PWM1DRbits
                                           	extern	_PWM2DRbits
                                           	extern	_PWMCR0bits
                                           	extern	_PWMCR1bits
                                           	extern	_OSCMRbits
                                           	extern	_LVDCRbits
                                           	extern	_ADCR0bits
                                           	extern	_ADCR1bits
                                           	extern	_ADCR2bits
                                           	extern	_OSADJCRbits
                                           	extern	_ADRHbits
                                           	extern	_ADRLbits
                                           	extern	_P0ADCRbits
                                           	extern	_P1ADCRbits
                                           	extern	_IOP2bits
                                           	extern	_OEP2bits
                                           	extern	_PUP2bits
                                           	extern	_PDP2bits
                                           	extern	_PMODbits
                                           	extern	_PWMCR3bits
                                           	extern	_PWMCR2bits
                                           	extern	_PFRCCRbits
                                           	extern	_PFRCCALbits
                                           	extern	_EECRbits
                                           	extern	_EEPRbits
                                           	extern	_EEARbits
                                           	extern	_EEDRHbits
                                           	extern	_EEDRLbits
                                           	extern	_DBGCRbits
                                           	extern	_DBGPRbits
                                           	extern	_HIRCCALbits
                                           	extern	_INDF0
                                           	extern	_INDF1
                                           	extern	_INDF2
                                           	extern	_HIBYTE
                                           	extern	_FSR0
                                           	extern	_FSR1
                                           	extern	_PCL
                                           	extern	_PFLAG
                                           	extern	_MCR
                                           	extern	_INDF3
                                           	extern	_INTE
                                           	extern	_INTF
                                           	extern	_DRVCR
                                           	extern	_P0KBCR
                                           	extern	_P1KBCR
                                           	extern	_P2KBCR
                                           	extern	_IOP0
                                           	extern	_OEP0
                                           	extern	_PUP0
                                           	extern	_PDP0
                                           	extern	_IOP1
                                           	extern	_OEP1
                                           	extern	_PUP1
                                           	extern	_PDP1
                                           	extern	_T0CR
                                           	extern	_T0CNT
                                           	extern	_T0LOAD
                                           	extern	_T0DATA
                                           	extern	_T1CR
                                           	extern	_T1CNT
                                           	extern	_T1LOAD
                                           	extern	_T1DATA
                                           	extern	_T2CR
                                           	extern	_T2CNT
                                           	extern	_T2LOAD
                                           	extern	_T2DATA
                                           	extern	_T3CR
                                           	extern	_T3CNT
                                           	extern	_T3LOAD
                                           	extern	_PWM0DR
                                           	extern	_PWM1DR
                                           	extern	_PWM2DR
                                           	extern	_PWMCR0
                                           	extern	_PWMCR1
                                           	extern	_OSCMR
                                           	extern	_LVDCR
                                           	extern	_ADCR0
                                           	extern	_ADCR1
                                           	extern	_ADCR2
                                           	extern	_OSADJCR
                                           	extern	_ADRH
                                           	extern	_ADRL
                                           	extern	_P0ADCR
                                           	extern	_P1ADCR
                                           	extern	_IOP2
                                           	extern	_OEP2
                                           	extern	_PUP2
                                           	extern	_PDP2
                                           	extern	_PMOD
                                           	extern	_PWMCR3
                                           	extern	_PWMCR2
                                           	extern	_PFRCCR
                                           	extern	_PFRCCAL
                                           	extern	_EECR
                                           	extern	_EEPR
                                           	extern	_EEAR
                                           	extern	_EEDRH
                                           	extern	_EEDRL
                                           	extern	_DBGCR
                                           	extern	_DBGPR
                                           	extern	_HIRCCAL
                                           ;--------------------------------------------------------
                                           ; global declarations
                                           ;--------------------------------------------------------
                                           	global	_delay_ms
                                           	global	_CLR_RAM
                                           	global	_IO_Init
                                           	global	_adc_config
                                           	global	_timer0_pwm_config
                                           	global	_timer1_pwm_config
                                           	global	_timer2_pwm_config
                                           	global	_key_config
                                           	global	_adc_sel_pin
                                           	global	_adc_get_val
                                           	global	_adc_get_val_once
                                           	global	_Sys_Init
                                           	global	_key_scan_handle
                                           	global	_adc_scan_handle
                                           	global	_turn_dir_scan_handle
                                           	global	_shutdown_scan_handle
                                           	global	_low_power_scan_handle
                                           	global	_main
                                           	global	_int_isr
                                           	global	_mode_flag
                                           	global	_key_press_flag
                                           	global	_i
                                           	global	_adc_val
                                           	global	_turn_dir_ms_cnt
                                           	global	_shut_down_ms_cnt
                                           	global	_adc_bat_val
                                           	global	_adc_charging_val
                                           	global	_max_pwm_val
                                           	global	_last_pwm_val
                                           	global	_tmp_val
                                           	global	_tmp_val_l
                                           	global	_tmp_val_cnt
                                           	global	_flag_bat_is_empty
                                           	global	_tmp_bat_val
                                           	global	_over_charging_cnt
                                           	global	_full_charge_cnt
                                           	global	_abuf
                                           	global	_statusbuf
                                           	global	_flag1
                                           	global	_flag2
                                           
                                           	global STK06
                                           	global STK05
                                           	global STK04
                                           	global STK03
                                           	global STK02
                                           	global STK01
                                           	global STK00
                                           
                                           sharebank udata_ovr 0x0000
                                           STK06	res 1
                                           STK05	res 1
                                           STK04	res 1
                                           STK03	res 1
                                           STK02	res 1
                                           STK01	res 1
                                           STK00	res 1
                                           
                                           ;--------------------------------------------------------
                                           ; global definitions
                                           ;--------------------------------------------------------
                                           UD_MC32F7361_0	udata
                                           _mode_flag	res	1
                                           
                                           UD_MC32F7361_1	udata
                                           _key_press_flag	res	1
                                           
                                           UD_MC32F7361_2	udata
                                           _i	res	1
                                           
                                           UD_MC32F7361_3	udata
                                           _adc_val	res	2
                                           
                                           UD_MC32F7361_4	udata
                                           _turn_dir_ms_cnt	res	4
                                           
                                           UD_MC32F7361_5	udata
                                           _shut_down_ms_cnt	res	4
                                           
                                           UD_MC32F7361_6	udata
                                           _adc_bat_val	res	4
                                           
                                           UD_MC32F7361_7	udata
                                           _adc_charging_val	res	2
                                           
                                           UD_MC32F7361_8	udata
                                           _max_pwm_val	res	4
                                           
                                           UD_MC32F7361_9	udata
                                           _last_pwm_val	res	2
                                           
                                           UD_MC32F7361_10	udata
                                           _tmp_val	res	2
                                           
                                           UD_MC32F7361_11	udata
                                           _tmp_val_l	res	16
                                           
                                           UD_MC32F7361_12	udata
                                           _tmp_val_cnt	res	1
                                           
                                           UD_MC32F7361_13	udata
                                           _flag_bat_is_empty	res	1
                                           
                                           UD_MC32F7361_14	udata
                                           _tmp_bat_val	res	2
                                           
                                           UD_MC32F7361_15	udata
                                           _over_charging_cnt	res	1
                                           
                                           UD_MC32F7361_16	udata
                                           _full_charge_cnt	res	4
                                           
                                           UD_MC32F7361_17	udata
                                           _abuf	res	1
                                           
                                           UD_MC32F7361_18	udata
                                           _statusbuf	res	1
                                           
                                           UD_MC32F7361_19	udata
                                           _flag1	res	1
                                           
                                           UD_MC32F7361_20	udata
                                           _flag2	res	1
                                           
                                           ;--------------------------------------------------------
                                           ; absolute symbol definitions
                                           ;--------------------------------------------------------
                                           ;--------------------------------------------------------
                                           ; compiler-defined variables
                                           ;--------------------------------------------------------
                                           UDL_MC32F7361_0	udata
                                           r0x1038	res	1
                                           r0x1037	res	1
                                           r0x1039	res	1
                                           r0x103A	res	1
                                           r0x103B	res	1
                                           r0x103C	res	1
                                           r0x103D	res	1
                                           r0x103E	res	1
                                           r0x103F	res	1
                                           r0x1040	res	1
                                           r0x1041	res	1
                                           r0x1043	res	1
                                           r0x1042	res	1
                                           r0x1044	res	1
                                           r0x1045	res	1
                                           r0x1046	res	1
                                           r0x1047	res	1
                                           r0x1048	res	1
                                           r0x1049	res	1
                                           r0x104A	res	1
                                           r0x104B	res	1
                                           r0x104D	res	1
                                           r0x104C	res	1
                                           r0x104E	res	1
                                           r0x104F	res	1
                                           r0x1050	res	1
                                           r0x1051	res	1
                                           r0x1052	res	1
                                           r0x1053	res	1
                                           r0x1054	res	1
                                           r0x1055	res	1
                                           _key_scan_handle_flag_is_key_mode_hold_131072_34	res	1
                                           _adc_scan_handle_cnt_65536_65	res	1
                                           _adc_scan_handle_need_charge_cnt_65536_65	res	1
                                           ;--------------------------------------------------------
                                           ; initialized data
                                           ;--------------------------------------------------------
                                           
                                           ;@Allocation info for local variables in function 'delay_ms'
                                           ;@delay_ms delay_ms                  Allocated to registers ;size:2
                                           ;@delay_ms INDF0bits                 Allocated to registers ;size:1
                                           ;@delay_ms INDF1bits                 Allocated to registers ;size:1
                                           ;@delay_ms INDF2bits                 Allocated to registers ;size:1
                                           ;@delay_ms HIBYTEbits                Allocated to registers ;size:1
                                           ;@delay_ms FSR0bits                  Allocated to registers ;size:1
                                           ;@delay_ms FSR1bits                  Allocated to registers ;size:1
                                           ;@delay_ms PCLbits                   Allocated to registers ;size:1
                                           ;@delay_ms PFLAGbits                 Allocated to registers ;size:1
                                           ;@delay_ms MCRbits                   Allocated to registers ;size:1
                                           ;@delay_ms INDF3bits                 Allocated to registers ;size:1
                                           ;@delay_ms INTEbits                  Allocated to registers ;size:1
                                           ;@delay_ms INTFbits                  Allocated to registers ;size:1
                                           ;@delay_ms DRVCRbits                 Allocated to registers ;size:1
                                           ;@delay_ms P0KBCRbits                Allocated to registers ;size:1
                                           ;@delay_ms P1KBCRbits                Allocated to registers ;size:1
                                           ;@delay_ms P2KBCRbits                Allocated to registers ;size:1
                                           ;@delay_ms IOP0bits                  Allocated to registers ;size:1
                                           ;@delay_ms OEP0bits                  Allocated to registers ;size:1
                                           ;@delay_ms PUP0bits                  Allocated to registers ;size:1
                                           ;@delay_ms PDP0bits                  Allocated to registers ;size:1
                                           ;@delay_ms IOP1bits                  Allocated to registers ;size:1
                                           ;@delay_ms OEP1bits                  Allocated to registers ;size:1
                                           ;@delay_ms PUP1bits                  Allocated to registers ;size:1
                                           ;@delay_ms PDP1bits                  Allocated to registers ;size:1
                                           ;@delay_ms T0CRbits                  Allocated to registers ;size:1
                                           ;@delay_ms T0CNTbits                 Allocated to registers ;size:1
                                           ;@delay_ms T0LOADbits                Allocated to registers ;size:1
                                           ;@delay_ms T0DATAbits                Allocated to registers ;size:1
                                           ;@delay_ms T1CRbits                  Allocated to registers ;size:1
                                           ;@delay_ms T1CNTbits                 Allocated to registers ;size:1
                                           ;@delay_ms T1LOADbits                Allocated to registers ;size:1
                                           ;@delay_ms T1DATAbits                Allocated to registers ;size:1
                                           ;@delay_ms T2CRbits                  Allocated to registers ;size:1
                                           ;@delay_ms T2CNTbits                 Allocated to registers ;size:1
                                           ;@delay_ms T2LOADbits                Allocated to registers ;size:1
                                           ;@delay_ms T2DATAbits                Allocated to registers ;size:1
                                           ;@delay_ms T3CRbits                  Allocated to registers ;size:1
                                           ;@delay_ms T3CNTbits                 Allocated to registers ;size:1
                                           ;@delay_ms T3LOADbits                Allocated to registers ;size:1
                                           ;@delay_ms PWM0DRbits                Allocated to registers ;size:1
                                           ;@delay_ms PWM1DRbits                Allocated to registers ;size:1
                                           ;@delay_ms PWM2DRbits                Allocated to registers ;size:1
                                           ;@delay_ms PWMCR0bits                Allocated to registers ;size:1
                                           ;@delay_ms PWMCR1bits                Allocated to registers ;size:1
                                           ;@delay_ms OSCMRbits                 Allocated to registers ;size:1
                                           ;@delay_ms LVDCRbits                 Allocated to registers ;size:1
                                           ;@delay_ms ADCR0bits                 Allocated to registers ;size:1
                                           ;@delay_ms ADCR1bits                 Allocated to registers ;size:1
                                           ;@delay_ms ADCR2bits                 Allocated to registers ;size:1
                                           ;@delay_ms OSADJCRbits               Allocated to registers ;size:1
                                           ;@delay_ms ADRHbits                  Allocated to registers ;size:1
                                           ;@delay_ms ADRLbits                  Allocated to registers ;size:1
                                           ;@delay_ms P0ADCRbits                Allocated to registers ;size:1
                                           ;@delay_ms P1ADCRbits                Allocated to registers ;size:1
                                           ;@delay_ms IOP2bits                  Allocated to registers ;size:1
                                           ;@delay_ms OEP2bits                  Allocated to registers ;size:1
                                           ;@delay_ms PUP2bits                  Allocated to registers ;size:1
                                           ;@delay_ms PDP2bits                  Allocated to registers ;size:1
                                           ;@delay_ms PMODbits                  Allocated to registers ;size:1
                                           ;@delay_ms PWMCR3bits                Allocated to registers ;size:1
                                           ;@delay_ms PWMCR2bits                Allocated to registers ;size:1
                                           ;@delay_ms PFRCCRbits                Allocated to registers ;size:1
                                           ;@delay_ms PFRCCALbits               Allocated to registers ;size:1
                                           ;@delay_ms EECRbits                  Allocated to registers ;size:1
                                           ;@delay_ms EEPRbits                  Allocated to registers ;size:1
                                           ;@delay_ms EEARbits                  Allocated to registers ;size:1
                                           ;@delay_ms EEDRHbits                 Allocated to registers ;size:1
                                           ;@delay_ms EEDRLbits                 Allocated to registers ;size:1
                                           ;@delay_ms DBGCRbits                 Allocated to registers ;size:1
                                           ;@delay_ms DBGPRbits                 Allocated to registers ;size:1
                                           ;@delay_ms HIRCCALbits               Allocated to registers ;size:1
                                           ;@delay_ms mode_flag                 Allocated to registers ;size:1
                                           ;@delay_ms key_press_flag            Allocated to registers ;size:1
                                           ;@delay_ms i                         Allocated to registers ;size:1
                                           ;@delay_ms adc_val                   Allocated to registers ;size:2
                                           ;@delay_ms turn_dir_ms_cnt           Allocated to registers ;size:4
                                           ;@delay_ms shut_down_ms_cnt          Allocated to registers ;size:4
                                           ;@delay_ms adc_bat_val               Allocated to registers ;size:4
                                           ;@delay_ms adc_charging_val          Allocated to registers ;size:2
                                           ;@delay_ms max_pwm_val               Allocated to registers ;size:4
                                           ;@delay_ms last_pwm_val              Allocated to registers ;size:2
                                           ;@delay_ms tmp_val                   Allocated to registers ;size:2
                                           ;@delay_ms tmp_val_l                 Allocated to registers ;size:16
                                           ;@delay_ms tmp_val_cnt               Allocated to registers ;size:1
                                           ;@delay_ms flag_bat_is_empty         Allocated to registers ;size:1
                                           ;@delay_ms tmp_bat_val               Allocated to registers ;size:2
                                           ;@delay_ms over_charging_cnt         Allocated to registers ;size:1
                                           ;@delay_ms full_charge_cnt           Allocated to registers ;size:4
                                           ;@delay_ms abuf                      Allocated to registers ;size:1
                                           ;@delay_ms statusbuf                 Allocated to registers ;size:1
                                           ;@delay_ms flag1                     Allocated to registers ;size:1
                                           ;@delay_ms flag2                     Allocated to registers ;size:1
                                           ;@delay_ms xms                       Allocated to registers ;size:2
                                           ;@delay_ms i                         Allocated to registers r0x1039 r0x103A ;size:2
                                           ;@delay_ms INDF0                     Allocated to registers ;size:1
                                           ;@delay_ms INDF1                     Allocated to registers ;size:1
                                           ;@delay_ms INDF2                     Allocated to registers ;size:1
                                           ;@delay_ms HIBYTE                    Allocated to registers ;size:1
                                           ;@delay_ms FSR0                      Allocated to registers ;size:1
                                           ;@delay_ms FSR1                      Allocated to registers ;size:1
                                           ;@delay_ms PCL                       Allocated to registers ;size:1
                                           ;@delay_ms PFLAG                     Allocated to registers ;size:1
                                           ;@delay_ms MCR                       Allocated to registers ;size:1
                                           ;@delay_ms INDF3                     Allocated to registers ;size:1
                                           ;@delay_ms INTE                      Allocated to registers ;size:1
                                           ;@delay_ms INTF                      Allocated to registers ;size:1
                                           ;@delay_ms DRVCR                     Allocated to registers ;size:1
                                           ;@delay_ms P0KBCR                    Allocated to registers ;size:1
                                           ;@delay_ms P1KBCR                    Allocated to registers ;size:1
                                           ;@delay_ms P2KBCR                    Allocated to registers ;size:1
                                           ;@delay_ms IOP0                      Allocated to registers ;size:1
                                           ;@delay_ms OEP0                      Allocated to registers ;size:1
                                           ;@delay_ms PUP0                      Allocated to registers ;size:1
                                           ;@delay_ms PDP0                      Allocated to registers ;size:1
                                           ;@delay_ms IOP1                      Allocated to registers ;size:1
                                           ;@delay_ms OEP1                      Allocated to registers ;size:1
                                           ;@delay_ms PUP1                      Allocated to registers ;size:1
                                           ;@delay_ms PDP1                      Allocated to registers ;size:1
                                           ;@delay_ms T0CR                      Allocated to registers ;size:1
                                           ;@delay_ms T0CNT                     Allocated to registers ;size:1
                                           ;@delay_ms T0LOAD                    Allocated to registers ;size:1
                                           ;@delay_ms T0DATA                    Allocated to registers ;size:1
                                           ;@delay_ms T1CR                      Allocated to registers ;size:1
                                           ;@delay_ms T1CNT                     Allocated to registers ;size:1
                                           ;@delay_ms T1LOAD                    Allocated to registers ;size:1
                                           ;@delay_ms T1DATA                    Allocated to registers ;size:1
                                           ;@delay_ms T2CR                      Allocated to registers ;size:1
                                           ;@delay_ms T2CNT                     Allocated to registers ;size:1
                                           ;@delay_ms T2LOAD                    Allocated to registers ;size:1
                                           ;@delay_ms T2DATA                    Allocated to registers ;size:1
                                           ;@delay_ms T3CR                      Allocated to registers ;size:1
                                           ;@delay_ms T3CNT                     Allocated to registers ;size:1
                                           ;@delay_ms T3LOAD                    Allocated to registers ;size:1
                                           ;@delay_ms PWM0DR                    Allocated to registers ;size:1
                                           ;@delay_ms PWM1DR                    Allocated to registers ;size:1
                                           ;@delay_ms PWM2DR                    Allocated to registers ;size:1
                                           ;@delay_ms PWMCR0                    Allocated to registers ;size:1
                                           ;@delay_ms PWMCR1                    Allocated to registers ;size:1
                                           ;@delay_ms OSCMR                     Allocated to registers ;size:1
                                           ;@delay_ms LVDCR                     Allocated to registers ;size:1
                                           ;@delay_ms ADCR0                     Allocated to registers ;size:1
                                           ;@delay_ms ADCR1                     Allocated to registers ;size:1
                                           ;@delay_ms ADCR2                     Allocated to registers ;size:1
                                           ;@delay_ms OSADJCR                   Allocated to registers ;size:1
                                           ;@delay_ms ADRH                      Allocated to registers ;size:1
                                           ;@delay_ms ADRL                      Allocated to registers ;size:1
                                           ;@delay_ms P0ADCR                    Allocated to registers ;size:1
                                           ;@delay_ms P1ADCR                    Allocated to registers ;size:1
                                           ;@delay_ms IOP2                      Allocated to registers ;size:1
                                           ;@delay_ms OEP2                      Allocated to registers ;size:1
                                           ;@delay_ms PUP2                      Allocated to registers ;size:1
                                           ;@delay_ms PDP2                      Allocated to registers ;size:1
                                           ;@delay_ms PMOD                      Allocated to registers ;size:1
                                           ;@delay_ms PWMCR3                    Allocated to registers ;size:1
                                           ;@delay_ms PWMCR2                    Allocated to registers ;size:1
                                           ;@delay_ms PFRCCR                    Allocated to registers ;size:1
                                           ;@delay_ms PFRCCAL                   Allocated to registers ;size:1
                                           ;@delay_ms EECR                      Allocated to registers ;size:1
                                           ;@delay_ms EEPR                      Allocated to registers ;size:1
                                           ;@delay_ms EEAR                      Allocated to registers ;size:1
                                           ;@delay_ms EEDRH                     Allocated to registers ;size:1
                                           ;@delay_ms EEDRL                     Allocated to registers ;size:1
                                           ;@delay_ms DBGCR                     Allocated to registers ;size:1
                                           ;@delay_ms DBGPR                     Allocated to registers ;size:1
                                           ;@delay_ms HIRCCAL                   Allocated to registers ;size:1
                                           ;@end Allocation info for local variables in function 'delay_ms';
                                           ;@Allocation info for local variables in function 'CLR_RAM'
                                           ;@end Allocation info for local variables in function 'CLR_RAM';
                                           ;@Allocation info for local variables in function 'IO_Init'
                                           ;@end Allocation info for local variables in function 'IO_Init';
                                           ;@Allocation info for local variables in function 'adc_config'
                                           ;@end Allocation info for local variables in function 'adc_config';
                                           ;@Allocation info for local variables in function 'timer0_pwm_config'
                                           ;@end Allocation info for local variables in function 'timer0_pwm_config';
                                           ;@Allocation info for local variables in function 'timer1_pwm_config'
                                           ;@end Allocation info for local variables in function 'timer1_pwm_config';
                                           ;@Allocation info for local variables in function 'timer2_pwm_config'
                                           ;@end Allocation info for local variables in function 'timer2_pwm_config';
                                           ;@Allocation info for local variables in function 'key_config'
                                           ;@end Allocation info for local variables in function 'key_config';
                                           ;@Allocation info for local variables in function 'adc_sel_pin'
                                           ;@adc_sel_pin adc_pin                   Allocated to registers r0x103D ;size:1
                                           ;@end Allocation info for local variables in function 'adc_sel_pin';
                                           ;@Allocation info for local variables in function 'adc_get_val'
                                           ;@adc_get_val i                         Allocated to registers r0x103F ;size:1
                                           ;@adc_get_val g_temp_value              Allocated to registers r0x1040 r0x1041 ;size:2
                                           ;@adc_get_val g_tmpbuff                 Allocated to registers r0x103B r0x103C r0x1042 r0x1044 ;size:4
                                           ;@adc_get_val g_adcmax                  Allocated to registers r0x103B r0x103C ;size:2
                                           ;@adc_get_val g_adcmin                  Allocated to registers r0x103D r0x103E ;size:2
                                           ;@end Allocation info for local variables in function 'adc_get_val';
                                           ;@Allocation info for local variables in function 'adc_get_val_once'
                                           ;@adc_get_val_once g_temp_value              Allocated to registers r0x103A r0x1039 ;size:2
                                           ;@end Allocation info for local variables in function 'adc_get_val_once';
                                           ;@Allocation info for local variables in function 'Sys_Init'
                                           ;@end Allocation info for local variables in function 'Sys_Init';
                                           ;@Allocation info for local variables in function 'key_scan_handle'
                                           ;@key_scan_handle flag_is_key_mode_hold     Allocated to registers ;size:1
                                           ;@key_scan_handle press_cnt                 Allocated to registers r0x103D r0x103E ;size:2
                                           ;@key_scan_handle press_cnt                 Allocated to registers r0x103D r0x103E ;size:2
                                           ;@end Allocation info for local variables in function 'key_scan_handle';
                                           ;@Allocation info for local variables in function 'key_scan_handle'
                                           ;@key_scan_handle flag_is_key_mode_hold     Allocated to registers ;size:1
                                           ;@key_scan_handle press_cnt                 Allocated to registers r0x103D r0x103E ;size:2
                                           ;@key_scan_handle press_cnt                 Allocated to registers r0x103D r0x103E ;size:2
                                           ;@end Allocation info for local variables in function 'key_scan_handle';
                                           ;@Allocation info for local variables in function 'adc_scan_handle'
                                           ;@adc_scan_handle cnt                       Allocated to registers ;size:1
                                           ;@adc_scan_handle need_charge_cnt           Allocated to registers ;size:1
                                           ;@end Allocation info for local variables in function 'adc_scan_handle';
                                           ;@Allocation info for local variables in function 'turn_dir_scan_handle'
                                           ;@end Allocation info for local variables in function 'turn_dir_scan_handle';
                                           ;@Allocation info for local variables in function 'shutdown_scan_handle'
                                           ;@end Allocation info for local variables in function 'shutdown_scan_handle';
                                           ;@Allocation info for local variables in function 'low_power_scan_handle'
                                           ;@end Allocation info for local variables in function 'low_power_scan_handle';
                                           ;@Allocation info for local variables in function 'main'
                                           ;@end Allocation info for local variables in function 'main';
                                           ;@Allocation info for local variables in function 'int_isr'
                                           ;@end Allocation info for local variables in function 'int_isr';
                                           
                                           ;--------------------------------------------------------
                                           ; overlayable items in internal ram 
                                           ;--------------------------------------------------------
                                           ;	udata_ovr
                                           ;--------------------------------------------------------
                                           ; reset vector 
                                           ;--------------------------------------------------------
                                           STARTUP	code 0x0000
                                           	goto	_main
                                           ;--------------------------------------------------------
                                           ; interrupt and initialization code
                                           ;--------------------------------------------------------
                                           c_interrupt	code	0x8
                                           __sdcc_interrupt
                                           ;***
                                           ;  pBlock Stats: dbName = I
                                           ;***
                                           ;entry:  _int_isr	;Function start
                                           ; 0 exit points
                                           ;2 compiler assigned registers:
                                           ;   r0x1054
                                           ;   r0x1055
                                           ;; Starting pCode block
                                           _int_isr	;Function start
                                           ; 0 exit points
                                           ;	.line	1050; "MC32F7361.c"	__endasm;
                                           	;
                                           	movra	_abuf;
                                           	swapar	_PFLAG;
                                           	movra	_statusbuf;
                                           	
                                           ;	.line	1052; "MC32F7361.c"	if (INT0IF & INT0IE)
                                           	CLRR	r0x1054
                                           	JBCLR	_INTFbits,2
                                           	INCR	r0x1054
                                           	CLRR	r0x1055
                                           	JBCLR	_INTEbits,2
                                           	INCR	r0x1055
                                           	MOVAR	r0x1055
                                           	ANDRA	r0x1054
                                           	MOVAI	0x00
                                           	ORAR	r0x1054
                                           	JBCLR	PFLAG,2
                                           	GOTO	_00831_DS_
                                           ;	.line	1054; "MC32F7361.c"	INT0IF = 0;
                                           	BCLR	_INTFbits,2
                                           _00831_DS_
                                           ;	.line	1076; "MC32F7361.c"	__endasm;
                                           	;
                                           	swapar	_statusbuf;
                                           	movra	_PFLAG;
                                           	swapr	_abuf;
                                           	swapar	_abuf;
                                           	
                                           END_OF_INTERRUPT
                                           ;	.line	1077; "MC32F7361.c"	}
                                           	RETIE	
                                           
                                           ;--------------------------------------------------------
                                           ; code
                                           ;--------------------------------------------------------
                                           code_MC32F7361	code
                                           ;***
                                           ;  pBlock Stats: dbName = M
                                           ;***
                                           ;entry:  _main	;Function start
                                           ; 2 exit points
                                           ;has an exit
                                           ;functions called:
                                           ;   _Sys_Init
                                           ;   _adc_sel_pin
                                           ;   _adc_get_val
                                           ;   _key_scan_handle
                                           ;   _adc_scan_handle
                                           ;   _turn_dir_scan_handle
                                           ;   _shutdown_scan_handle
                                           ;   __mullong
                                           ;   __divulong
                                           ;   __mullong
                                           ;   __mullong
                                           ;   __divulong
                                           ;   __divulong
                                           ;   _delay_ms
                                           ;   _delay_ms
                                           ;   _low_power_scan_handle
                                           ;   _Sys_Init
                                           ;   _adc_sel_pin
                                           ;   _adc_get_val
                                           ;   _key_scan_handle
                                           ;   _adc_scan_handle
                                           ;   _turn_dir_scan_handle
                                           ;   _shutdown_scan_handle
                                           ;   __mullong
                                           ;   __divulong
                                           ;   __mullong
                                           ;   __mullong
                                           ;   __divulong
                                           ;   __divulong
                                           ;   _delay_ms
                                           ;   _delay_ms
                                           ;   _low_power_scan_handle
                                           ;17 compiler assigned registers:
                                           ;   STK00
                                           ;   r0x104A
                                           ;   r0x104B
                                           ;   STK06
                                           ;   STK05
                                           ;   STK04
                                           ;   STK03
                                           ;   STK02
                                           ;   STK01
                                           ;   r0x104C
                                           ;   r0x104D
                                           ;   r0x104E
                                           ;   r0x104F
                                           ;   r0x1050
                                           ;   r0x1051
                                           ;   r0x1052
                                           ;   r0x1053
                                           ;; Starting pCode block
                                           _main	;Function start
                                           ; 2 exit points
                                           ;	.line	840; "MC32F7361.c"	Sys_Init();
                                           	CALL	_Sys_Init
                                           ;	.line	843; "MC32F7361.c"	LED_WORKING_OFF();
                                           	BSET	_IOP1bits,4
                                           ;	.line	844; "MC32F7361.c"	LED_FULL_CHARGE_OFF();
                                           	BSET	_IOP0bits,3
                                           ;	.line	845; "MC32F7361.c"	LED_CHARGING_OFF();
                                           	BSET	_IOP0bits,4
                                           ;	.line	850; "MC32F7361.c"	PWM2EC = 1; // pwm
                                           	BSET	_T2CRbits,6
                                           ;	.line	851; "MC32F7361.c"	T2DATA = 20;
                                           	MOVAI	0x14
                                           	MOVRA	_T2DATA
                                           ;	.line	852; "MC32F7361.c"	adc_sel_pin(ADC_PIN_P02_AN1); // 
                                           	MOVAI	0x02
                                           	CALL	_adc_sel_pin
                                           ;	.line	853; "MC32F7361.c"	for (i = 0; i < 10; i++)      // 55ms4.8ms
                                           	CLRR	_i
                                           ;;unsigned compare: left < lit(0xA=10), size=1
                                           _00747_DS_
                                           	MOVAI	0x0a
                                           	RSUBAR	_i
                                           	JBCLR	PFLAG,0
                                           	GOTO	_00705_DS_
                                           ;;genSkipc:3291: created from rifx:013B5EFC
                                           ;	.line	855; "MC32F7361.c"	adc_val = adc_get_val();
                                           	CALL	_adc_get_val
                                           	MOVRA	(_adc_val + 1)
                                           	MOVAR	STK00
                                           	MOVRA	_adc_val
                                           ;;unsigned compare: left < lit(0xFA0=4000), size=2
                                           ;	.line	856; "MC32F7361.c"	if (adc_val >= ADCDETECT_BAT_FULL + ADCDETECT_BAT_NULL_EX)
                                           	MOVAI	0x0f
                                           	RSUBAR	(_adc_val + 1)
                                           	JBSET	PFLAG,2
                                           	GOTO	_00816_DS_
                                           	MOVAI	0xa0
                                           	RSUBAR	_adc_val
                                           _00816_DS_
                                           	JBSET	PFLAG,0
                                           	GOTO	_00748_DS_
                                           ;;genSkipc:3291: created from rifx:013B5EFC
                                           ;	.line	858; "MC32F7361.c"	flag_bat_is_empty = 1;
                                           	MOVAI	0x01
                                           	MOVRA	_flag_bat_is_empty
                                           ;	.line	859; "MC32F7361.c"	FLAG_DURING_CHARGING_BAT_IS_NULL = 1; // 
                                           	BSET	_flag1,7
                                           _00748_DS_
                                           ;	.line	853; "MC32F7361.c"	for (i = 0; i < 10; i++)      // 55ms4.8ms
                                           	INCR	_i
                                           	GOTO	_00747_DS_
                                           _00705_DS_
                                           ;	.line	862; "MC32F7361.c"	PWM2EC = 0; // pwm
                                           	BCLR	_T2CRbits,6
                                           ;	.line	863; "MC32F7361.c"	T2DATA = 0;
                                           	CLRR	_T2DATA
                                           _00744_DS_
                                           ;	.line	871; "MC32F7361.c"	key_scan_handle(); // 
                                           	CALL	_key_scan_handle
                                           ;	.line	872; "MC32F7361.c"	adc_scan_handle(); // (89ms)
                                           	CALL	_adc_scan_handle
                                           ;	.line	874; "MC32F7361.c"	turn_dir_scan_handle();
                                           	CALL	_turn_dir_scan_handle
                                           ;	.line	875; "MC32F7361.c"	shutdown_scan_handle(); // 
                                           	CALL	_shutdown_scan_handle
                                           ;	.line	879; "MC32F7361.c"	if (FLAG_IS_IN_CHARGING)
                                           	JBSET	_flag1,2
                                           	GOTO	_00739_DS_
                                           ;	.line	881; "MC32F7361.c"	last_pwm_val = T2DATA;      // PWM
                                           	MOVAR	_T2DATA
                                           	MOVRA	_last_pwm_val
                                           	CLRR	(_last_pwm_val + 1)
                                           ;	.line	882; "MC32F7361.c"	max_pwm_val = (T2LOAD + 1); // PWM
                                           	MOVAR	_T2LOAD
                                           	MOVRA	r0x104A
                                           	CLRR	r0x104B
                                           	MOVAI	0x01
                                           	ADDAR	r0x104A
                                           	MOVRA	_max_pwm_val
                                           	CLRR	(_max_pwm_val + 1)
                                           	RLR	(_max_pwm_val + 1)
                                           	MOVAI	0x00
                                           	ADDRA	(_max_pwm_val + 1)
                                           	CLRR	(_max_pwm_val + 2)
                                           	CLRR	(_max_pwm_val + 3)
                                           ;;unsigned compare: left < lit(0xA3B=2619), size=4
                                           ;	.line	898; "MC32F7361.c"	if (adc_bat_val < 2619) // 6.0V
                                           	MOVAI	0x00
                                           	RSUBAR	(_adc_bat_val + 3)
                                           	JBSET	PFLAG,2
                                           	GOTO	_00817_DS_
                                           	MOVAI	0x00
                                           	RSUBAR	(_adc_bat_val + 2)
                                           	JBSET	PFLAG,2
                                           	GOTO	_00817_DS_
                                           	MOVAI	0x0a
                                           	RSUBAR	(_adc_bat_val + 1)
                                           	JBSET	PFLAG,2
                                           	GOTO	_00817_DS_
                                           	MOVAI	0x3b
                                           	RSUBAR	_adc_bat_val
                                           _00817_DS_
                                           	JBCLR	PFLAG,0
                                           	GOTO	_00719_DS_
                                           ;;genSkipc:3291: created from rifx:013B5EFC
                                           ;	.line	902; "MC32F7361.c"	tmp_bat_val = (adc_bat_val + 37);
                                           	MOVAR	_adc_bat_val
                                           	MOVRA	r0x104A
                                           	MOVAR	(_adc_bat_val + 1)
                                           	MOVRA	r0x104B
                                           	MOVAI	0x25
                                           	ADDAR	r0x104A
                                           	MOVRA	_tmp_bat_val
                                           	CLRR	(_tmp_bat_val + 1)
                                           	RLR	(_tmp_bat_val + 1)
                                           	MOVAR	r0x104B
                                           	ADDRA	(_tmp_bat_val + 1)
                                           	GOTO	_00720_DS_
                                           ;;swapping arguments (AOP_TYPEs 1/3)
                                           ;;unsigned compare: left >= lit(0xB16=2838), size=4
                                           _00719_DS_
                                           ;	.line	904; "MC32F7361.c"	else if (adc_bat_val <= 2837) //  6.5V
                                           	MOVAI	0x00
                                           	RSUBAR	(_adc_bat_val + 3)
                                           	JBSET	PFLAG,2
                                           	GOTO	_00818_DS_
                                           	MOVAI	0x00
                                           	RSUBAR	(_adc_bat_val + 2)
                                           	JBSET	PFLAG,2
                                           	GOTO	_00818_DS_
                                           	MOVAI	0x0b
                                           	RSUBAR	(_adc_bat_val + 1)
                                           	JBSET	PFLAG,2
                                           	GOTO	_00818_DS_
                                           	MOVAI	0x16
                                           	RSUBAR	_adc_bat_val
                                           _00818_DS_
                                           	JBCLR	PFLAG,0
                                           	GOTO	_00716_DS_
                                           ;;genSkipc:3291: created from rifx:013B5EFC
                                           ;	.line	907; "MC32F7361.c"	tmp_bat_val = (adc_bat_val + 37);
                                           	MOVAR	_adc_bat_val
                                           	MOVRA	r0x104A
                                           	MOVAR	(_adc_bat_val + 1)
                                           	MOVRA	r0x104B
                                           	MOVAI	0x25
                                           	ADDAR	r0x104A
                                           	MOVRA	_tmp_bat_val
                                           	CLRR	(_tmp_bat_val + 1)
                                           	RLR	(_tmp_bat_val + 1)
                                           	MOVAR	r0x104B
                                           	ADDRA	(_tmp_bat_val + 1)
                                           	GOTO	_00720_DS_
                                           ;;swapping arguments (AOP_TYPEs 1/3)
                                           ;;unsigned compare: left >= lit(0xBF1=3057), size=4
                                           _00716_DS_
                                           ;	.line	909; "MC32F7361.c"	else if (adc_bat_val <= 3056) //  7.0V
                                           	MOVAI	0x00
                                           	RSUBAR	(_adc_bat_val + 3)
                                           	JBSET	PFLAG,2
                                           	GOTO	_00819_DS_
                                           	MOVAI	0x00
                                           	RSUBAR	(_adc_bat_val + 2)
                                           	JBSET	PFLAG,2
                                           	GOTO	_00819_DS_
                                           	MOVAI	0x0b
                                           	RSUBAR	(_adc_bat_val + 1)
                                           	JBSET	PFLAG,2
                                           	GOTO	_00819_DS_
                                           	MOVAI	0xf1
                                           	RSUBAR	_adc_bat_val
                                           _00819_DS_
                                           	JBCLR	PFLAG,0
                                           	GOTO	_00713_DS_
                                           ;;genSkipc:3291: created from rifx:013B5EFC
                                           ;	.line	912; "MC32F7361.c"	tmp_bat_val = (adc_bat_val + 27);
                                           	MOVAR	_adc_bat_val
                                           	MOVRA	r0x104A
                                           	MOVAR	(_adc_bat_val + 1)
                                           	MOVRA	r0x104B
                                           	MOVAI	0x1b
                                           	ADDAR	r0x104A
                                           	MOVRA	_tmp_bat_val
                                           	CLRR	(_tmp_bat_val + 1)
                                           	RLR	(_tmp_bat_val + 1)
                                           	MOVAR	r0x104B
                                           	ADDRA	(_tmp_bat_val + 1)
                                           	GOTO	_00720_DS_
                                           ;;swapping arguments (AOP_TYPEs 1/3)
                                           ;;unsigned compare: left >= lit(0xC75=3189), size=4
                                           _00713_DS_
                                           ;	.line	914; "MC32F7361.c"	else if (adc_bat_val <= 3188) //  7.3V
                                           	MOVAI	0x00
                                           	RSUBAR	(_adc_bat_val + 3)
                                           	JBSET	PFLAG,2
                                           	GOTO	_00820_DS_
                                           	MOVAI	0x00
                                           	RSUBAR	(_adc_bat_val + 2)
                                           	JBSET	PFLAG,2
                                           	GOTO	_00820_DS_
                                           	MOVAI	0x0c
                                           	RSUBAR	(_adc_bat_val + 1)
                                           	JBSET	PFLAG,2
                                           	GOTO	_00820_DS_
                                           	MOVAI	0x75
                                           	RSUBAR	_adc_bat_val
                                           _00820_DS_
                                           	JBCLR	PFLAG,0
                                           	GOTO	_00710_DS_
                                           ;;genSkipc:3291: created from rifx:013B5EFC
                                           ;	.line	917; "MC32F7361.c"	tmp_bat_val = (adc_bat_val + 16);
                                           	MOVAR	_adc_bat_val
                                           	MOVRA	r0x104A
                                           	MOVAR	(_adc_bat_val + 1)
                                           	MOVRA	r0x104B
                                           	MOVAI	0x10
                                           	ADDAR	r0x104A
                                           	MOVRA	_tmp_bat_val
                                           	CLRR	(_tmp_bat_val + 1)
                                           	RLR	(_tmp_bat_val + 1)
                                           	MOVAR	r0x104B
                                           	ADDRA	(_tmp_bat_val + 1)
                                           	GOTO	_00720_DS_
                                           ;;swapping arguments (AOP_TYPEs 1/3)
                                           ;;unsigned compare: left >= lit(0xCFF=3327), size=4
                                           _00710_DS_
                                           ;	.line	919; "MC32F7361.c"	else if (adc_bat_val <= 3326) //  7.62V
                                           	MOVAI	0x00
                                           	RSUBAR	(_adc_bat_val + 3)
                                           	JBSET	PFLAG,2
                                           	GOTO	_00821_DS_
                                           	MOVAI	0x00
                                           	RSUBAR	(_adc_bat_val + 2)
                                           	JBSET	PFLAG,2
                                           	GOTO	_00821_DS_
                                           	MOVAI	0x0c
                                           	RSUBAR	(_adc_bat_val + 1)
                                           	JBSET	PFLAG,2
                                           	GOTO	_00821_DS_
                                           	MOVAI	0xff
                                           	RSUBAR	_adc_bat_val
                                           _00821_DS_
                                           	JBCLR	PFLAG,0
                                           	GOTO	_00707_DS_
                                           ;;genSkipc:3291: created from rifx:013B5EFC
                                           ;	.line	922; "MC32F7361.c"	tmp_bat_val = (adc_bat_val + 0);
                                           	MOVAR	_adc_bat_val
                                           	MOVRA	_tmp_bat_val
                                           	MOVAR	(_adc_bat_val + 1)
                                           	MOVRA	(_tmp_bat_val + 1)
                                           	GOTO	_00720_DS_
                                           _00707_DS_
                                           ;	.line	935; "MC32F7361.c"	tmp_bat_val = (u32)adc_bat_val - ((u32)adc_bat_val * 157 / 1000 - 522);
                                           	MOVAR	_adc_bat_val
                                           	MOVRA	STK06
                                           	MOVAR	(_adc_bat_val + 1)
                                           	MOVRA	STK05
                                           	MOVAR	(_adc_bat_val + 2)
                                           	MOVRA	STK04
                                           	MOVAR	(_adc_bat_val + 3)
                                           	MOVRA	STK03
                                           	MOVAI	0x9d
                                           	MOVRA	STK02
                                           	MOVAI	0x00
                                           	MOVRA	STK01
                                           	MOVAI	0x00
                                           	MOVRA	STK00
                                           	MOVAI	0x00
                                           	CALL	__mullong
                                           	MOVRA	r0x104C
                                           	MOVAR	STK00
                                           	MOVRA	r0x104D
                                           	MOVAR	STK01
                                           	MOVRA	r0x104B
                                           	MOVAR	STK02
                                           	MOVRA	r0x104A
                                           	MOVAI	0xe8
                                           	MOVRA	STK06
                                           	MOVAI	0x03
                                           	MOVRA	STK05
                                           	MOVAI	0x00
                                           	MOVRA	STK04
                                           	MOVAI	0x00
                                           	MOVRA	STK03
                                           	MOVAR	r0x104A
                                           	MOVRA	STK02
                                           	MOVAR	r0x104B
                                           	MOVRA	STK01
                                           	MOVAR	r0x104D
                                           	MOVRA	STK00
                                           	MOVAR	r0x104C
                                           	CALL	__divulong
                                           	MOVRA	r0x104C
                                           	MOVAR	STK00
                                           	MOVRA	r0x104D
                                           	MOVAR	STK01
                                           	MOVRA	r0x104F
                                           	MOVRA	r0x104B
                                           	MOVAR	STK02
                                           	MOVRA	r0x104E
                                           	MOVRA	r0x104A
                                           ;;124	MOVAR	r0x104A
                                           ;;125	MOVAR	r0x104B
                                           	MOVAI	0xf6
                                           	ADDAR	r0x104E
                                           	MOVRA	r0x104A
                                           	MOVAI	0xfd
                                           	MOVRA	r0x104B
                                           	MOVAR	r0x104F
                                           	JBCLR	PFLAG,0
                                           	JZAR	r0x104F
                                           	ADDRA	r0x104B
                                           	MOVAR	_adc_bat_val
                                           	MOVRA	r0x104E
                                           	MOVAR	(_adc_bat_val + 1)
                                           	MOVRA	r0x104F
                                           	MOVAR	r0x104A
                                           	RSUBAR	r0x104E
                                           	MOVRA	_tmp_bat_val
                                           	MOVAR	r0x104B
                                           	JBSET	PFLAG,0
                                           	INCAR	r0x104B
                                           	RSUBAR	r0x104F
                                           	MOVRA	(_tmp_bat_val + 1)
                                           _00720_DS_
                                           ;	.line	943; "MC32F7361.c"	tmp_bat_val += 27; //  
                                           	MOVAI	0x1b
                                           	ADDRA	_tmp_bat_val
                                           	JBCLR	PFLAG,0
                                           	INCR	(_tmp_bat_val + 1)
                                           ;	.line	977; "MC32F7361.c"	tmp_val = max_pwm_val - (adc_charging_val * max_pwm_val * 94 / 147) / tmp_bat_val;
                                           	MOVAR	_adc_charging_val
                                           	MOVRA	r0x104A
                                           	MOVAR	(_adc_charging_val + 1)
                                           	MOVRA	r0x104B
                                           	CLRR	r0x104E
                                           	CLRR	r0x104F
                                           	MOVAR	_max_pwm_val
                                           	MOVRA	STK06
                                           	MOVAR	(_max_pwm_val + 1)
                                           	MOVRA	STK05
                                           	MOVAR	(_max_pwm_val + 2)
                                           	MOVRA	STK04
                                           	MOVAR	(_max_pwm_val + 3)
                                           	MOVRA	STK03
                                           	MOVAR	r0x104A
                                           	MOVRA	STK02
                                           	MOVAR	r0x104B
                                           	MOVRA	STK01
                                           	MOVAI	0x00
                                           	MOVRA	STK00
                                           	MOVAI	0x00
                                           	CALL	__mullong
                                           	MOVRA	r0x104F
                                           	MOVAR	STK00
                                           	MOVRA	r0x104E
                                           	MOVAR	STK01
                                           	MOVRA	r0x104B
                                           	MOVAR	STK02
                                           	MOVRA	r0x104A
                                           	MOVAR	r0x104A
                                           	MOVRA	STK06
                                           	MOVAR	r0x104B
                                           	MOVRA	STK05
                                           	MOVAR	r0x104E
                                           	MOVRA	STK04
                                           	MOVAR	r0x104F
                                           	MOVRA	STK03
                                           	MOVAI	0x5e
                                           	MOVRA	STK02
                                           	MOVAI	0x00
                                           	MOVRA	STK01
                                           	MOVAI	0x00
                                           	MOVRA	STK00
                                           	MOVAI	0x00
                                           	CALL	__mullong
                                           	MOVRA	r0x104F
                                           	MOVAR	STK00
                                           	MOVRA	r0x104E
                                           	MOVAR	STK01
                                           	MOVRA	r0x104B
                                           	MOVAR	STK02
                                           	MOVRA	r0x104A
                                           	MOVAI	0x93
                                           	MOVRA	STK06
                                           	MOVAI	0x00
                                           	MOVRA	STK05
                                           	MOVAI	0x00
                                           	MOVRA	STK04
                                           	MOVAI	0x00
                                           	MOVRA	STK03
                                           	MOVAR	r0x104A
                                           	MOVRA	STK02
                                           	MOVAR	r0x104B
                                           	MOVRA	STK01
                                           	MOVAR	r0x104E
                                           	MOVRA	STK00
                                           	MOVAR	r0x104F
                                           	CALL	__divulong
                                           	MOVRA	r0x104F
                                           	MOVAR	STK00
                                           	MOVRA	r0x104E
                                           	MOVAR	STK01
                                           	MOVRA	r0x104B
                                           	MOVAR	STK02
                                           	MOVRA	r0x104A
                                           	MOVAR	_tmp_bat_val
                                           	MOVRA	r0x1050
                                           	MOVAR	(_tmp_bat_val + 1)
                                           	MOVRA	r0x1051
                                           	CLRR	r0x1052
                                           	CLRR	r0x1053
                                           	MOVAR	r0x1050
                                           	MOVRA	STK06
                                           	MOVAR	r0x1051
                                           	MOVRA	STK05
                                           	MOVAI	0x00
                                           	MOVRA	STK04
                                           	MOVAI	0x00
                                           	MOVRA	STK03
                                           	MOVAR	r0x104A
                                           	MOVRA	STK02
                                           	MOVAR	r0x104B
                                           	MOVRA	STK01
                                           	MOVAR	r0x104E
                                           	MOVRA	STK00
                                           	MOVAR	r0x104F
                                           	CALL	__divulong
                                           	MOVRA	r0x104F
                                           	MOVAR	STK00
                                           	MOVRA	r0x104E
                                           	MOVAR	STK01
                                           	MOVRA	r0x1053
                                           	MOVRA	r0x104B
                                           	MOVAR	STK02
                                           	MOVRA	r0x1052
                                           	MOVRA	r0x104A
                                           	MOVAR	_max_pwm_val
                                           	MOVRA	r0x1050
                                           	MOVAR	(_max_pwm_val + 1)
                                           	MOVRA	r0x1051
                                           ;;121	MOVAR	r0x104A
                                           ;;122	MOVAR	r0x104B
                                           	MOVAR	r0x1052
                                           	RSUBAR	r0x1050
                                           	MOVRA	_tmp_val
                                           	MOVAR	r0x1053
                                           	JBSET	PFLAG,0
                                           	INCAR	r0x1053
                                           	RSUBAR	r0x1051
                                           	MOVRA	(_tmp_val + 1)
                                           ;	.line	979; "MC32F7361.c"	if (tmp_val >= max_pwm_val)
                                           	MOVAR	_tmp_val
                                           	MOVRA	r0x104A
                                           	MOVAR	(_tmp_val + 1)
                                           	MOVRA	r0x104B
                                           	CLRR	r0x104E
                                           	CLRR	r0x104F
                                           	MOVAR	(_max_pwm_val + 3)
                                           	RSUBAR	r0x104F
                                           	JBSET	PFLAG,2
                                           	GOTO	_00822_DS_
                                           	MOVAR	(_max_pwm_val + 2)
                                           	RSUBAR	r0x104E
                                           	JBSET	PFLAG,2
                                           	GOTO	_00822_DS_
                                           	MOVAR	(_max_pwm_val + 1)
                                           	RSUBAR	r0x104B
                                           	JBSET	PFLAG,2
                                           	GOTO	_00822_DS_
                                           	MOVAR	_max_pwm_val
                                           	RSUBAR	r0x104A
                                           _00822_DS_
                                           	JBSET	PFLAG,0
                                           	GOTO	_00722_DS_
                                           ;;genSkipc:3291: created from rifx:013B5EFC
                                           ;	.line	982; "MC32F7361.c"	tmp_val = 0;
                                           	CLRR	_tmp_val
                                           	CLRR	(_tmp_val + 1)
                                           _00722_DS_
                                           ;	.line	986; "MC32F7361.c"	tmp_val_cnt++;
                                           	INCR	_tmp_val_cnt
                                           ;;unsigned compare: left < lit(0x8=8), size=1
                                           ;	.line	987; "MC32F7361.c"	if (tmp_val_cnt >= 8)
                                           	MOVAI	0x08
                                           	RSUBAR	_tmp_val_cnt
                                           	JBSET	PFLAG,0
                                           	GOTO	_00724_DS_
                                           ;;genSkipc:3291: created from rifx:013B5EFC
                                           ;	.line	988; "MC32F7361.c"	tmp_val_cnt = 0;
                                           	CLRR	_tmp_val_cnt
                                           _00724_DS_
                                           ;	.line	989; "MC32F7361.c"	tmp_val_l[tmp_val_cnt] += tmp_val;
                                           	BCLR	PFLAG,0
                                           	RLAR	_tmp_val_cnt
                                           	MOVRA	r0x104A
                                           	MOVAR	r0x104A
                                           	ADDAI	(_tmp_val_l + 0)
                                           	MOVRA	r0x104A
                                           	MOVAI	high (_tmp_val_l + 0)
                                           	JBCLR	PFLAG,0
                                           	ADDAI	0x01
                                           	MOVRA	r0x104B
                                           	BCLR	PFLAG,0
                                           	RLAR	_tmp_val_cnt
                                           	MOVRA	r0x104E
                                           	MOVAR	r0x104E
                                           	ADDAI	(_tmp_val_l + 0)
                                           	MOVRA	r0x104E
                                           	MOVAI	high (_tmp_val_l + 0)
                                           	JBCLR	PFLAG,0
                                           	ADDAI	0x01
                                           	MOVRA	r0x104F
                                           	MOVAR	r0x104E
                                           	MOVRA	FSR0
                                           	MOVAR	r0x104F
                                           	MOVRA	FSR1
                                           	MOVAR	INDF2
                                           	MOVRA	r0x1050
                                           	INCR	FSR0
                                           	JBCLR	PFLAG,2
                                           	INCR	FSR1
                                           	MOVAR	INDF2
                                           	MOVRA	r0x104F
                                           	MOVRA	r0x1051
                                           	MOVAR	_tmp_val
                                           	ADDAR	r0x1050
                                           	MOVRA	r0x104E
                                           ;;123	MOVAR	r0x1051
                                           	MOVAR	(_tmp_val + 1)
                                           	JBCLR	PFLAG,0
                                           	JZAR	(_tmp_val + 1)
                                           	ADDRA	r0x104F
                                           	MOVAR	r0x104A
                                           	MOVRA	FSR0
                                           	MOVAR	r0x104B
                                           	MOVRA	FSR1
                                           	MOVAR	r0x104E
                                           	MOVRA	INDF2
                                           	INCR	FSR0
                                           	JBCLR	PFLAG,2
                                           	INCR	FSR1
                                           	MOVAR	r0x104F
                                           	MOVRA	INDF2
                                           ;	.line	990; "MC32F7361.c"	tmp_val_l[tmp_val_cnt] >>= 1;
                                           	BCLR	PFLAG,0
                                           	RLAR	_tmp_val_cnt
                                           	MOVRA	r0x104A
                                           	MOVAR	r0x104A
                                           	ADDAI	(_tmp_val_l + 0)
                                           	MOVRA	r0x104A
                                           	MOVAI	high (_tmp_val_l + 0)
                                           	JBCLR	PFLAG,0
                                           	ADDAI	0x01
                                           	MOVRA	r0x104B
                                           	BCLR	PFLAG,0
                                           	RLAR	_tmp_val_cnt
                                           	MOVRA	r0x104E
                                           	MOVAR	r0x104E
                                           	ADDAI	(_tmp_val_l + 0)
                                           	MOVRA	r0x104E
                                           	MOVAI	high (_tmp_val_l + 0)
                                           	JBCLR	PFLAG,0
                                           	ADDAI	0x01
                                           	MOVRA	r0x104F
                                           	MOVAR	r0x104E
                                           	MOVRA	FSR0
                                           	MOVAR	r0x104F
                                           	MOVRA	FSR1
                                           	MOVAR	INDF2
                                           	MOVRA	r0x1050
                                           	INCR	FSR0
                                           	JBCLR	PFLAG,2
                                           	INCR	FSR1
                                           	MOVAR	INDF2
                                           	MOVRA	r0x1051
                                           ;;shiftRight_Left2ResultLit:5339: shCount=1, size=2, sign=0, same=0, offr=0
                                           	BCLR	PFLAG,0
                                           	RRAR	r0x1051
                                           	MOVRA	r0x104F
                                           	RRAR	r0x1050
                                           	MOVRA	r0x104E
                                           	MOVAR	r0x104A
                                           	MOVRA	FSR0
                                           	MOVAR	r0x104B
                                           	MOVRA	FSR1
                                           	MOVAR	r0x104E
                                           	MOVRA	INDF2
                                           	INCR	FSR0
                                           	JBCLR	PFLAG,2
                                           	INCR	FSR1
                                           	MOVAR	r0x104F
                                           	MOVRA	INDF2
                                           ;	.line	991; "MC32F7361.c"	tmp_val = 0;
                                           	CLRR	_tmp_val
                                           	CLRR	(_tmp_val + 1)
                                           ;	.line	992; "MC32F7361.c"	tmp_val += tmp_val_l[0];
                                           	MOVAR	(_tmp_val_l + 0)
                                           	MOVRA	r0x104A
                                           	MOVAR	(_tmp_val_l + 1)
                                           	MOVRA	r0x104B
                                           	MOVAR	r0x104A
                                           	ADDRA	_tmp_val
                                           	MOVAR	r0x104B
                                           	JBCLR	PFLAG,0
                                           	JZAR	r0x104B
                                           	ADDRA	(_tmp_val + 1)
                                           ;	.line	993; "MC32F7361.c"	tmp_val += tmp_val_l[1];
                                           	MOVAR	(_tmp_val_l + 2)
                                           	MOVRA	r0x104A
                                           	MOVAR	(_tmp_val_l + 3)
                                           	MOVRA	r0x104B
                                           	MOVAR	r0x104A
                                           	ADDRA	_tmp_val
                                           	MOVAR	r0x104B
                                           	JBCLR	PFLAG,0
                                           	JZAR	r0x104B
                                           	ADDRA	(_tmp_val + 1)
                                           ;	.line	994; "MC32F7361.c"	tmp_val += tmp_val_l[2];
                                           	MOVAR	(_tmp_val_l + 4)
                                           	MOVRA	r0x104A
                                           	MOVAR	(_tmp_val_l + 5)
                                           	MOVRA	r0x104B
                                           	MOVAR	r0x104A
                                           	ADDRA	_tmp_val
                                           	MOVAR	r0x104B
                                           	JBCLR	PFLAG,0
                                           	JZAR	r0x104B
                                           	ADDRA	(_tmp_val + 1)
                                           ;	.line	995; "MC32F7361.c"	tmp_val += tmp_val_l[3];
                                           	MOVAR	(_tmp_val_l + 6)
                                           	MOVRA	r0x104A
                                           	MOVAR	(_tmp_val_l + 7)
                                           	MOVRA	r0x104B
                                           	MOVAR	r0x104A
                                           	ADDRA	_tmp_val
                                           	MOVAR	r0x104B
                                           	JBCLR	PFLAG,0
                                           	JZAR	r0x104B
                                           	ADDRA	(_tmp_val + 1)
                                           ;	.line	996; "MC32F7361.c"	tmp_val += tmp_val_l[4];
                                           	MOVAR	(_tmp_val_l + 8)
                                           	MOVRA	r0x104A
                                           	MOVAR	(_tmp_val_l + 9)
                                           	MOVRA	r0x104B
                                           	MOVAR	r0x104A
                                           	ADDRA	_tmp_val
                                           	MOVAR	r0x104B
                                           	JBCLR	PFLAG,0
                                           	JZAR	r0x104B
                                           	ADDRA	(_tmp_val + 1)
                                           ;	.line	997; "MC32F7361.c"	tmp_val += tmp_val_l[5];
                                           	MOVAR	(_tmp_val_l + 10)
                                           	MOVRA	r0x104A
                                           	MOVAR	(_tmp_val_l + 11)
                                           	MOVRA	r0x104B
                                           	MOVAR	r0x104A
                                           	ADDRA	_tmp_val
                                           	MOVAR	r0x104B
                                           	JBCLR	PFLAG,0
                                           	JZAR	r0x104B
                                           	ADDRA	(_tmp_val + 1)
                                           ;	.line	998; "MC32F7361.c"	tmp_val += tmp_val_l[6];
                                           	MOVAR	(_tmp_val_l + 12)
                                           	MOVRA	r0x104A
                                           	MOVAR	(_tmp_val_l + 13)
                                           	MOVRA	r0x104B
                                           	MOVAR	r0x104A
                                           	ADDRA	_tmp_val
                                           	MOVAR	r0x104B
                                           	JBCLR	PFLAG,0
                                           	JZAR	r0x104B
                                           	ADDRA	(_tmp_val + 1)
                                           ;	.line	999; "MC32F7361.c"	tmp_val += tmp_val_l[7];
                                           	MOVAR	(_tmp_val_l + 14)
                                           	MOVRA	r0x104A
                                           	MOVAR	(_tmp_val_l + 15)
                                           	MOVRA	r0x104B
                                           	MOVAR	r0x104A
                                           	ADDRA	_tmp_val
                                           	MOVAR	r0x104B
                                           	JBCLR	PFLAG,0
                                           	JZAR	r0x104B
                                           	ADDRA	(_tmp_val + 1)
                                           ;;shiftRight_Left2ResultLit:5339: shCount=1, size=2, sign=0, same=1, offr=0
                                           ;	.line	1000; "MC32F7361.c"	tmp_val >>= 3;
                                           	BCLR	PFLAG,0
                                           	RRR	(_tmp_val + 1)
                                           	RRR	_tmp_val
                                           ;;shiftRight_Left2ResultLit:5339: shCount=1, size=2, sign=0, same=1, offr=0
                                           	BCLR	PFLAG,0
                                           	RRR	(_tmp_val + 1)
                                           	RRR	_tmp_val
                                           ;;shiftRight_Left2ResultLit:5339: shCount=1, size=2, sign=0, same=1, offr=0
                                           	BCLR	PFLAG,0
                                           	RRR	(_tmp_val + 1)
                                           	RRR	_tmp_val
                                           ;	.line	1002; "MC32F7361.c"	if (tmp_val > last_pwm_val)
                                           	MOVAR	(_tmp_val + 1)
                                           	RSUBAR	(_last_pwm_val + 1)
                                           	JBSET	PFLAG,2
                                           	GOTO	_00824_DS_
                                           	MOVAR	_tmp_val
                                           	RSUBAR	_last_pwm_val
                                           _00824_DS_
                                           	JBCLR	PFLAG,0
                                           	GOTO	_00728_DS_
                                           ;;genSkipc:3291: created from rifx:013B5EFC
                                           ;	.line	1004; "MC32F7361.c"	last_pwm_val = last_pwm_val + 1;
                                           	INCR	_last_pwm_val
                                           	JBCLR	PFLAG,2
                                           	INCR	(_last_pwm_val + 1)
                                           	GOTO	_00729_DS_
                                           _00728_DS_
                                           ;	.line	1006; "MC32F7361.c"	else if (tmp_val < last_pwm_val)
                                           	MOVAR	(_last_pwm_val + 1)
                                           	RSUBAR	(_tmp_val + 1)
                                           	JBSET	PFLAG,2
                                           	GOTO	_00825_DS_
                                           	MOVAR	_last_pwm_val
                                           	RSUBAR	_tmp_val
                                           _00825_DS_
                                           	JBCLR	PFLAG,0
                                           	GOTO	_00729_DS_
                                           ;;genSkipc:3291: created from rifx:013B5EFC
                                           ;	.line	1008; "MC32F7361.c"	last_pwm_val = last_pwm_val - 1;
                                           	MOVAI	0xff
                                           	ADDRA	_last_pwm_val
                                           	JBSET	PFLAG,0
                                           	DECR	(_last_pwm_val + 1)
                                           _00729_DS_
                                           ;	.line	1011; "MC32F7361.c"	T2DATA = last_pwm_val;
                                           	MOVAR	_last_pwm_val
                                           	MOVRA	_T2DATA
                                           	GOTO	_00740_DS_
                                           _00739_DS_
                                           ;	.line	1015; "MC32F7361.c"	if (FLAG_DURING_CHARGING_BAT_IS_NULL)
                                           	JBSET	_flag1,7
                                           	GOTO	_00740_DS_
                                           ;	.line	1018; "MC32F7361.c"	LED_FULL_CHARGE_ON();
                                           	BCLR	_IOP0bits,3
                                           ;	.line	1019; "MC32F7361.c"	delay_ms(200);
                                           	MOVAI	0xc8
                                           	MOVRA	STK00
                                           	MOVAI	0x00
                                           	CALL	_delay_ms
                                           ;	.line	1020; "MC32F7361.c"	LED_FULL_CHARGE_OFF();
                                           	BSET	_IOP0bits,3
                                           ;	.line	1021; "MC32F7361.c"	delay_ms(200);
                                           	MOVAI	0xc8
                                           	MOVRA	STK00
                                           	MOVAI	0x00
                                           	CALL	_delay_ms
                                           _00740_DS_
                                           ;	.line	1025; "MC32F7361.c"	if (FLAG_DURING_CHARGING_BAT_IS_NULL == 0) // 
                                           	JBCLR	_flag1,7
                                           	GOTO	_00742_DS_
                                           ;	.line	1026; "MC32F7361.c"	low_power_scan_handle();
                                           	CALL	_low_power_scan_handle
                                           _00742_DS_
                                           ;	.line	1033; "MC32F7361.c"	__endasm;
                                           	;
                                           	CLRWDT;
                                           	
                                           	GOTO	_00744_DS_
                                           ;	.line	1036; "MC32F7361.c"	}
                                           	RETURN	
                                           ; exit point of _main
                                           
                                           ;***
                                           ;  pBlock Stats: dbName = C
                                           ;***
                                           ;entry:  _low_power_scan_handle	;Function start
                                           ; 2 exit points
                                           ;has an exit
                                           ;functions called:
                                           ;   _CLR_RAM
                                           ;   _adc_sel_pin
                                           ;   _adc_get_val_once
                                           ;   _adc_sel_pin
                                           ;   _adc_get_val
                                           ;   _Sys_Init
                                           ;   _CLR_RAM
                                           ;   _adc_sel_pin
                                           ;   _adc_get_val_once
                                           ;   _adc_sel_pin
                                           ;   _adc_get_val
                                           ;   _Sys_Init
                                           ;1 compiler assigned register :
                                           ;   STK00
                                           ;; Starting pCode block
                                           _low_power_scan_handle	;Function start
                                           ; 2 exit points
                                           ;	.line	693; "MC32F7361.c"	if (FLAG_IS_DEVICE_OPEN)
                                           	JBSET	_flag1,0
                                           	GOTO	_00655_DS_
                                           ;	.line	696; "MC32F7361.c"	return;
                                           	GOTO	_00671_DS_
                                           _00655_DS_
                                           ;	.line	701; "MC32F7361.c"	if (FLAG_IS_IN_CHARGING)
                                           	JBSET	_flag1,2
                                           	GOTO	_00658_DS_
                                           ;	.line	704; "MC32F7361.c"	return;
                                           	GOTO	_00671_DS_
                                           _00658_DS_
                                           ;	.line	708; "MC32F7361.c"	GIE = 0; // 
                                           	BCLR	_MCRbits,7
                                           ;	.line	711; "MC32F7361.c"	T0EN = 0; // PWM
                                           	BCLR	_T0CRbits,7
                                           ;	.line	712; "MC32F7361.c"	T1EN = 0;
                                           	BCLR	_T1CRbits,7
                                           ;	.line	713; "MC32F7361.c"	T2EN = 0;
                                           	BCLR	_T2CRbits,7
                                           ;	.line	716; "MC32F7361.c"	PWM0EC = 0;
                                           	BCLR	_T0CRbits,6
                                           ;	.line	717; "MC32F7361.c"	PWM1EC = 0;
                                           	BCLR	_T1CRbits,6
                                           ;	.line	718; "MC32F7361.c"	PWM2EC = 0;
                                           	BCLR	_T2CRbits,6
                                           ;	.line	719; "MC32F7361.c"	T2DATA = 0;
                                           	CLRR	_T2DATA
                                           ;	.line	720; "MC32F7361.c"	ADEN = 0; // ad
                                           	BCLR	_ADCR0bits,0
                                           ;	.line	723; "MC32F7361.c"	IOP0 = 0x18;   // io
                                           	MOVAI	0x18
                                           	MOVRA	_IOP0
                                           ;	.line	724; "MC32F7361.c"	OEP0 = 0xFF;   // io 1:out  0:in
                                           	MOVAI	0xff
                                           	MOVRA	_OEP0
                                           ;	.line	725; "MC32F7361.c"	PUP0 = 0x00;   // io   1:enable  0:disable
                                           	CLRR	_PUP0
                                           ;	.line	726; "MC32F7361.c"	PDP0 = 0x00;   // io   1:enable  0:disable
                                           	CLRR	_PDP0
                                           ;	.line	727; "MC32F7361.c"	P0ADCR = 0x00; //     1disable
                                           	CLRR	_P0ADCR
                                           ;	.line	728; "MC32F7361.c"	IOP1 = 0x10;   // io
                                           	MOVAI	0x10
                                           	MOVRA	_IOP1
                                           ;	.line	729; "MC32F7361.c"	OEP1 = 0xFF;   // io 1:out  0:in
                                           	MOVAI	0xff
                                           	MOVRA	_OEP1
                                           ;	.line	730; "MC32F7361.c"	PUP1 = 0x00;   // io   1:enable  0:disable
                                           	CLRR	_PUP1
                                           ;	.line	731; "MC32F7361.c"	PDP1 = 0x00;   // io   1:enable  0:disable
                                           	CLRR	_PDP1
                                           ;	.line	732; "MC32F7361.c"	P1ADCR = 0x00; //     1disable
                                           	CLRR	_P1ADCR
                                           ;	.line	741; "MC32F7361.c"	P01PU = 1;
                                           	BSET	_PUP0bits,1
                                           ;	.line	742; "MC32F7361.c"	P01OE = 0;
                                           	BCLR	_OEP0bits,1
                                           ;	.line	743; "MC32F7361.c"	P01KE = 1;
                                           	BSET	_P0KBCRbits,1
                                           ;	.line	744; "MC32F7361.c"	KBIF = 0;
                                           	BCLR	_INTFbits,4
                                           ;	.line	745; "MC32F7361.c"	KBIE = 1;
                                           	BSET	_INTEbits,4
                                           ;	.line	748; "MC32F7361.c"	P00PD = 1;
                                           	BSET	_PDP0bits,0
                                           ;	.line	749; "MC32F7361.c"	P00OE = 0;
                                           	BCLR	_OEP0bits,0
                                           ;	.line	750; "MC32F7361.c"	P00KE = 1;
                                           	BSET	_P0KBCRbits,0
                                           ;	.line	752; "MC32F7361.c"	HFEN = 0; // 
                                           	BCLR	_OSCMRbits,0
                                           ;	.line	753; "MC32F7361.c"	LFEN = 1;
                                           	BSET	_OSCMRbits,1
                                           ;	.line	756; "MC32F7361.c"	Nop();
                                           	nop	
                                           ;	.line	757; "MC32F7361.c"	Nop();
                                           	nop	
                                           ;	.line	758; "MC32F7361.c"	Stop();
                                           	stop	
                                           ;	.line	759; "MC32F7361.c"	Nop();
                                           	nop	
                                           ;	.line	760; "MC32F7361.c"	Nop();
                                           	nop	
                                           ;	.line	762; "MC32F7361.c"	P01KE = 0; //  /
                                           	BCLR	_P0KBCRbits,1
                                           ;	.line	763; "MC32F7361.c"	P00KE =0 ; // 
                                           	BCLR	_P0KBCRbits,0
                                           ;	.line	764; "MC32F7361.c"	KBIE = 0; // 
                                           	BCLR	_INTEbits,4
                                           ;	.line	765; "MC32F7361.c"	KBIF = 0;
                                           	BCLR	_INTFbits,4
                                           ;	.line	767; "MC32F7361.c"	CLR_RAM();
                                           	CALL	_CLR_RAM
                                           ;	.line	770; "MC32F7361.c"	P00PU = 0; // 
                                           	BCLR	_PUP0bits,0
                                           ;	.line	771; "MC32F7361.c"	P00PD = 0;
                                           	BCLR	_PDP0bits,0
                                           ;	.line	772; "MC32F7361.c"	P00OE = 0;    // 
                                           	BCLR	_OEP0bits,0
                                           ;	.line	773; "MC32F7361.c"	P00DC = 1;    // 
                                           	BSET	_P0ADCRbits,0
                                           ;	.line	774; "MC32F7361.c"	ADCR1 = 0xE1; // 125K  3V
                                           	MOVAI	0xe1
                                           	MOVRA	_ADCR1
                                           ;	.line	775; "MC32F7361.c"	ADCR2 = 0xFF; // ADC15ADC
                                           	MOVAI	0xff
                                           	MOVRA	_ADCR2
                                           ;	.line	776; "MC32F7361.c"	ADEN = 1;     // ADC
                                           	BSET	_ADCR0bits,0
                                           ;	.line	778; "MC32F7361.c"	adc_sel_pin(ADC_PIN_P00_AN0);
                                           	MOVAI	0x01
                                           	CALL	_adc_sel_pin
                                           ;	.line	779; "MC32F7361.c"	adc_val = adc_get_val_once();
                                           	CALL	_adc_get_val_once
                                           	MOVRA	(_adc_val + 1)
                                           	MOVAR	STK00
                                           	MOVRA	_adc_val
                                           ;;unsigned compare: left < lit(0x800=2048), size=2
                                           ;	.line	780; "MC32F7361.c"	if (adc_val < ADCDETECT_CHARING_THRESHOLD && P11D) // /
                                           	MOVAI	0x08
                                           	RSUBAR	(_adc_val + 1)
                                           	JBSET	PFLAG,2
                                           	GOTO	_00689_DS_
                                           	MOVAI	0x00
                                           	RSUBAR	_adc_val
                                           _00689_DS_
                                           	JBCLR	PFLAG,0
                                           	GOTO	_00660_DS_
                                           ;;genSkipc:3291: created from rifx:013B5EFC
                                           	JBCLR	_IOP1bits,1
                                           	GOTO	_00658_DS_
                                           _00660_DS_
                                           ;	.line	788; "MC32F7361.c"	P02PU = 0; // 
                                           	BCLR	_PUP0bits,2
                                           ;	.line	789; "MC32F7361.c"	P02PD = 0;
                                           	BCLR	_PDP0bits,2
                                           ;	.line	790; "MC32F7361.c"	P02OE = 0; // 
                                           	BCLR	_OEP0bits,2
                                           ;	.line	791; "MC32F7361.c"	P02DC = 1; // 
                                           	BSET	_P0ADCRbits,2
                                           ;	.line	792; "MC32F7361.c"	adc_sel_pin(ADC_PIN_P02_AN1);
                                           	MOVAI	0x02
                                           	CALL	_adc_sel_pin
                                           ;	.line	793; "MC32F7361.c"	adc_val = adc_get_val();
                                           	CALL	_adc_get_val
                                           	MOVRA	(_adc_val + 1)
                                           	MOVAR	STK00
                                           	MOVRA	_adc_val
                                           ;	.line	804; "MC32F7361.c"	FLAG_IS_NOT_OPEN_DEVICE = 0;
                                           	BCLR	_flag1,6
                                           ;	.line	806; "MC32F7361.c"	HFEN = 1; // 
                                           	BSET	_OSCMRbits,0
                                           ;	.line	829; "MC32F7361.c"	Sys_Init();
                                           	CALL	_Sys_Init
                                           ;	.line	831; "MC32F7361.c"	LED_WORKING_OFF();
                                           	BSET	_IOP1bits,4
                                           ;	.line	832; "MC32F7361.c"	LED_FULL_CHARGE_OFF();
                                           	BSET	_IOP0bits,3
                                           ;	.line	833; "MC32F7361.c"	LED_CHARGING_OFF();
                                           	BSET	_IOP0bits,4
                                           ;	.line	834; "MC32F7361.c"	GIE = 1;
                                           	BSET	_MCRbits,7
                                           _00671_DS_
                                           ;	.line	836; "MC32F7361.c"	}
                                           	RETURN	
                                           ; exit point of _low_power_scan_handle
                                           
                                           ;***
                                           ;  pBlock Stats: dbName = C
                                           ;***
                                           ;entry:  _shutdown_scan_handle	;Function start
                                           ; 2 exit points
                                           ;has an exit
                                           ;; Starting pCode block
                                           _shutdown_scan_handle	;Function start
                                           ; 2 exit points
                                           ;	.line	665; "MC32F7361.c"	if (FLAG_IS_DEVICE_OPEN)
                                           	JBSET	_flag1,0
                                           	GOTO	_00637_DS_
                                           ;	.line	668; "MC32F7361.c"	shut_down_ms_cnt += ONE_CYCLE_TIME_MS;
                                           	MOVAI	0x59
                                           	ADDRA	_shut_down_ms_cnt
                                           	JBCLR	PFLAG,0
                                           	INCR	(_shut_down_ms_cnt + 1)
                                           	JBCLR	PFLAG,2
                                           	INCR	(_shut_down_ms_cnt + 2)
                                           	JBCLR	PFLAG,2
                                           	INCR	(_shut_down_ms_cnt + 3)
                                           ;;unsigned compare: left < lit(0xDBBA0=900000), size=4
                                           ;	.line	669; "MC32F7361.c"	if (shut_down_ms_cnt >= 900000)
                                           	MOVAI	0x00
                                           	RSUBAR	(_shut_down_ms_cnt + 3)
                                           	JBSET	PFLAG,2
                                           	GOTO	_00649_DS_
                                           	MOVAI	0x0d
                                           	RSUBAR	(_shut_down_ms_cnt + 2)
                                           	JBSET	PFLAG,2
                                           	GOTO	_00649_DS_
                                           	MOVAI	0xbb
                                           	RSUBAR	(_shut_down_ms_cnt + 1)
                                           	JBSET	PFLAG,2
                                           	GOTO	_00649_DS_
                                           	MOVAI	0xa0
                                           	RSUBAR	_shut_down_ms_cnt
                                           _00649_DS_
                                           	JBSET	PFLAG,0
                                           	GOTO	_00639_DS_
                                           ;;genSkipc:3291: created from rifx:013B5EFC
                                           ;	.line	673; "MC32F7361.c"	LED_WORKING_OFF(); // 
                                           	BSET	_IOP1bits,4
                                           ;	.line	674; "MC32F7361.c"	HEATING_OFF();     // 
                                           	BCLR	_IOP1bits,2
                                           ;	.line	675; "MC32F7361.c"	FLAG_IS_HEATING = 0;
                                           	BCLR	_flag1,1
                                           ;	.line	676; "MC32F7361.c"	mode_flag = MODE_3; //  MODE_1
                                           	MOVAI	0x02
                                           	MOVRA	_mode_flag
                                           ;	.line	678; "MC32F7361.c"	PWM0EC = 0;
                                           	BCLR	_T0CRbits,6
                                           ;	.line	679; "MC32F7361.c"	PWM1EC = 0;
                                           	BCLR	_T1CRbits,6
                                           ;	.line	681; "MC32F7361.c"	FLAG_IS_DEVICE_OPEN = 0;
                                           	BCLR	_flag1,0
                                           	GOTO	_00639_DS_
                                           _00637_DS_
                                           ;	.line	687; "MC32F7361.c"	shut_down_ms_cnt = 0;
                                           	CLRR	_shut_down_ms_cnt
                                           	CLRR	(_shut_down_ms_cnt + 1)
                                           	CLRR	(_shut_down_ms_cnt + 2)
                                           	CLRR	(_shut_down_ms_cnt + 3)
                                           _00639_DS_
                                           ;	.line	689; "MC32F7361.c"	}
                                           	RETURN	
                                           ; exit point of _shutdown_scan_handle
                                           
                                           ;***
                                           ;  pBlock Stats: dbName = C
                                           ;***
                                           ;entry:  _turn_dir_scan_handle	;Function start
                                           ; 2 exit points
                                           ;has an exit
                                           ;functions called:
                                           ;   _delay_ms
                                           ;   _delay_ms
                                           ;   _delay_ms
                                           ;   _delay_ms
                                           ;1 compiler assigned register :
                                           ;   STK00
                                           ;; Starting pCode block
                                           _turn_dir_scan_handle	;Function start
                                           ; 2 exit points
                                           ;	.line	629; "MC32F7361.c"	if (FLAG_IS_DEVICE_OPEN)
                                           	JBSET	_flag1,0
                                           	GOTO	_00607_DS_
                                           ;	.line	632; "MC32F7361.c"	turn_dir_ms_cnt += ONE_CYCLE_TIME_MS;
                                           	MOVAI	0x59
                                           	ADDRA	_turn_dir_ms_cnt
                                           	JBCLR	PFLAG,0
                                           	INCR	(_turn_dir_ms_cnt + 1)
                                           	JBCLR	PFLAG,2
                                           	INCR	(_turn_dir_ms_cnt + 2)
                                           	JBCLR	PFLAG,2
                                           	INCR	(_turn_dir_ms_cnt + 3)
                                           ;;unsigned compare: left < lit(0x1D4C0=120000), size=4
                                           ;	.line	633; "MC32F7361.c"	if (turn_dir_ms_cnt >= (120000)) // 2min
                                           	MOVAI	0x00
                                           	RSUBAR	(_turn_dir_ms_cnt + 3)
                                           	JBSET	PFLAG,2
                                           	GOTO	_00623_DS_
                                           	MOVAI	0x01
                                           	RSUBAR	(_turn_dir_ms_cnt + 2)
                                           	JBSET	PFLAG,2
                                           	GOTO	_00623_DS_
                                           	MOVAI	0xd4
                                           	RSUBAR	(_turn_dir_ms_cnt + 1)
                                           	JBSET	PFLAG,2
                                           	GOTO	_00623_DS_
                                           	MOVAI	0xc0
                                           	RSUBAR	_turn_dir_ms_cnt
                                           _00623_DS_
                                           	JBSET	PFLAG,0
                                           	GOTO	_00609_DS_
                                           ;;genSkipc:3291: created from rifx:013B5EFC
                                           ;	.line	636; "MC32F7361.c"	if (0 == FLAG_DIR)
                                           	JBCLR	_flag1,3
                                           	GOTO	_00602_DS_
                                           ;	.line	639; "MC32F7361.c"	PWM0EC = 0; // pwm
                                           	BCLR	_T0CRbits,6
                                           ;	.line	640; "MC32F7361.c"	delay_ms(500);
                                           	MOVAI	0xf4
                                           	MOVRA	STK00
                                           	MOVAI	0x01
                                           	CALL	_delay_ms
                                           ;	.line	641; "MC32F7361.c"	PWM1EC = 1;   // pwm
                                           	BSET	_T1CRbits,6
                                           ;	.line	642; "MC32F7361.c"	FLAG_DIR = 1; // 
                                           	BSET	_flag1,3
                                           	GOTO	_00603_DS_
                                           _00602_DS_
                                           ;	.line	647; "MC32F7361.c"	PWM1EC = 0; // pwm
                                           	BCLR	_T1CRbits,6
                                           ;	.line	648; "MC32F7361.c"	delay_ms(500);
                                           	MOVAI	0xf4
                                           	MOVRA	STK00
                                           	MOVAI	0x01
                                           	CALL	_delay_ms
                                           ;	.line	649; "MC32F7361.c"	PWM0EC = 1;   // pwm
                                           	BSET	_T0CRbits,6
                                           ;	.line	650; "MC32F7361.c"	FLAG_DIR = 0; // 
                                           	BCLR	_flag1,3
                                           _00603_DS_
                                           ;	.line	653; "MC32F7361.c"	turn_dir_ms_cnt = 0;
                                           	CLRR	_turn_dir_ms_cnt
                                           	CLRR	(_turn_dir_ms_cnt + 1)
                                           	CLRR	(_turn_dir_ms_cnt + 2)
                                           	CLRR	(_turn_dir_ms_cnt + 3)
                                           	GOTO	_00609_DS_
                                           _00607_DS_
                                           ;	.line	658; "MC32F7361.c"	turn_dir_ms_cnt = 0; // 
                                           	CLRR	_turn_dir_ms_cnt
                                           	CLRR	(_turn_dir_ms_cnt + 1)
                                           	CLRR	(_turn_dir_ms_cnt + 2)
                                           	CLRR	(_turn_dir_ms_cnt + 3)
                                           _00609_DS_
                                           ;	.line	660; "MC32F7361.c"	}
                                           	RETURN	
                                           ; exit point of _turn_dir_scan_handle
                                           
                                           ;***
                                           ;  pBlock Stats: dbName = C
                                           ;***
                                           ;entry:  _adc_scan_handle	;Function start
                                           ; 2 exit points
                                           ;has an exit
                                           ;functions called:
                                           ;   _adc_sel_pin
                                           ;   _adc_get_val
                                           ;   _adc_sel_pin
                                           ;   _adc_get_val
                                           ;   _adc_sel_pin
                                           ;   _adc_get_val
                                           ;   _adc_sel_pin
                                           ;   _adc_get_val
                                           ;5 compiler assigned registers:
                                           ;   STK00
                                           ;   r0x1046
                                           ;   r0x1047
                                           ;   r0x1048
                                           ;   r0x1049
                                           ;; Starting pCode block
                                           _adc_scan_handle	;Function start
                                           ; 2 exit points
                                           ;	.line	439; "MC32F7361.c"	volatile u8 cnt = 0;             // /
                                           	CLRR	_adc_scan_handle_cnt_65536_65
                                           ;	.line	440; "MC32F7361.c"	volatile u8 need_charge_cnt = 0; // 
                                           	CLRR	_adc_scan_handle_need_charge_cnt_65536_65
                                           ;	.line	442; "MC32F7361.c"	adc_bat_val = 0;
                                           	CLRR	_adc_bat_val
                                           	CLRR	(_adc_bat_val + 1)
                                           	CLRR	(_adc_bat_val + 2)
                                           	CLRR	(_adc_bat_val + 3)
                                           ;	.line	443; "MC32F7361.c"	adc_charging_val = 0;
                                           	CLRR	_adc_charging_val
                                           	CLRR	(_adc_charging_val + 1)
                                           ;	.line	445; "MC32F7361.c"	adc_sel_pin(ADC_PIN_P02_AN1); // 
                                           	MOVAI	0x02
                                           	CALL	_adc_sel_pin
                                           ;	.line	446; "MC32F7361.c"	for (i = 0; i < 10; i++)      //  // 55ms4.8ms
                                           	CLRR	_i
                                           ;;unsigned compare: left < lit(0xA=10), size=1
                                           _00475_DS_
                                           	MOVAI	0x0a
                                           	RSUBAR	_i
                                           	JBCLR	PFLAG,0
                                           	GOTO	_00443_DS_
                                           ;;genSkipc:3291: created from rifx:013B5EFC
                                           ;	.line	448; "MC32F7361.c"	adc_val = adc_get_val();
                                           	CALL	_adc_get_val
                                           	MOVRA	(_adc_val + 1)
                                           	MOVAR	STK00
                                           	MOVRA	_adc_val
                                           ;	.line	450; "MC32F7361.c"	if (i == 0)
                                           	MOVAI	0x00
                                           	ORAR	_i
                                           	JBSET	PFLAG,2
                                           	GOTO	_00403_DS_
                                           ;	.line	452; "MC32F7361.c"	if (adc_bat_val != 0)
                                           	MOVAR	_adc_bat_val
                                           	ORAR	(_adc_bat_val + 1)
                                           	ORAR	(_adc_bat_val + 2)
                                           	ORAR	(_adc_bat_val + 3)
                                           	JBCLR	PFLAG,2
                                           	GOTO	_00400_DS_
                                           ;	.line	454; "MC32F7361.c"	adc_bat_val += adc_val;
                                           	MOVAR	_adc_val
                                           	MOVRA	r0x1046
                                           	MOVAR	(_adc_val + 1)
                                           	MOVRA	r0x1047
                                           	CLRR	r0x1048
                                           	CLRR	r0x1049
                                           	MOVAR	r0x1046
                                           	ADDRA	_adc_bat_val
                                           	MOVAR	r0x1047
                                           	JBCLR	PFLAG,0
                                           	JZAR	r0x1047
                                           	ADDRA	(_adc_bat_val + 1)
                                           	MOVAR	r0x1048
                                           	JBCLR	PFLAG,0
                                           	JZAR	r0x1048
                                           	ADDRA	(_adc_bat_val + 2)
                                           	MOVAR	r0x1049
                                           	JBCLR	PFLAG,0
                                           	JZAR	r0x1049
                                           	ADDRA	(_adc_bat_val + 3)
                                           ;;shiftRight_Left2ResultLit:5339: shCount=1, size=4, sign=0, same=1, offr=0
                                           ;	.line	455; "MC32F7361.c"	adc_bat_val /= 2;
                                           	BCLR	PFLAG,0
                                           	RRR	(_adc_bat_val + 3)
                                           	RRR	(_adc_bat_val + 2)
                                           	RRR	(_adc_bat_val + 1)
                                           	RRR	_adc_bat_val
                                           	GOTO	_00403_DS_
                                           _00400_DS_
                                           ;	.line	459; "MC32F7361.c"	adc_bat_val += adc_val;
                                           	MOVAR	_adc_val
                                           	MOVRA	r0x1046
                                           	MOVAR	(_adc_val + 1)
                                           	MOVRA	r0x1047
                                           	CLRR	r0x1048
                                           	CLRR	r0x1049
                                           	MOVAR	r0x1046
                                           	ADDRA	_adc_bat_val
                                           	MOVAR	r0x1047
                                           	JBCLR	PFLAG,0
                                           	JZAR	r0x1047
                                           	ADDRA	(_adc_bat_val + 1)
                                           	MOVAR	r0x1048
                                           	JBCLR	PFLAG,0
                                           	JZAR	r0x1048
                                           	ADDRA	(_adc_bat_val + 2)
                                           	MOVAR	r0x1049
                                           	JBCLR	PFLAG,0
                                           	JZAR	r0x1049
                                           	ADDRA	(_adc_bat_val + 3)
                                           _00403_DS_
                                           ;	.line	463; "MC32F7361.c"	if (FLAG_IS_IN_CHARGING)
                                           	JBSET	_flag1,2
                                           	GOTO	_00441_DS_
                                           ;;unsigned compare: left < lit(0xFA0=4000), size=2
                                           ;	.line	466; "MC32F7361.c"	if (adc_val >= ADCDETECT_BAT_FULL + ADCDETECT_BAT_NULL_EX)
                                           	MOVAI	0x0f
                                           	RSUBAR	(_adc_val + 1)
                                           	JBSET	PFLAG,2
                                           	GOTO	_00583_DS_
                                           	MOVAI	0xa0
                                           	RSUBAR	_adc_val
                                           _00583_DS_
                                           	JBSET	PFLAG,0
                                           	GOTO	_00405_DS_
                                           ;;genSkipc:3291: created from rifx:013B5EFC
                                           ;	.line	469; "MC32F7361.c"	T2DATA = 0;
                                           	CLRR	_T2DATA
                                           ;	.line	470; "MC32F7361.c"	over_charging_cnt++;
                                           	INCR	_over_charging_cnt
                                           ;;unsigned compare: left < lit(0xE88=3720), size=2
                                           _00405_DS_
                                           ;	.line	473; "MC32F7361.c"	if (adc_val >= ADCDETECT_BAT_FULL) // 
                                           	MOVAI	0x0e
                                           	RSUBAR	(_adc_val + 1)
                                           	JBSET	PFLAG,2
                                           	GOTO	_00584_DS_
                                           	MOVAI	0x88
                                           	RSUBAR	_adc_val
                                           _00584_DS_
                                           	JBSET	PFLAG,0
                                           	GOTO	_00409_DS_
                                           ;;genSkipc:3291: created from rifx:013B5EFC
                                           ;	.line	475; "MC32F7361.c"	cnt++;
                                           	INCR	_adc_scan_handle_cnt_65536_65
                                           	GOTO	_00410_DS_
                                           ;;unsigned compare: left < lit(0xD90=3472), size=2
                                           _00409_DS_
                                           ;	.line	477; "MC32F7361.c"	else if (adc_val < ADCDETECT_BAT_WILL_FULL) // 
                                           	MOVAI	0x0d
                                           	RSUBAR	(_adc_val + 1)
                                           	JBSET	PFLAG,2
                                           	GOTO	_00585_DS_
                                           	MOVAI	0x90
                                           	RSUBAR	_adc_val
                                           _00585_DS_
                                           	JBCLR	PFLAG,0
                                           	GOTO	_00410_DS_
                                           ;;genSkipc:3291: created from rifx:013B5EFC
                                           ;	.line	479; "MC32F7361.c"	need_charge_cnt++;
                                           	INCR	_adc_scan_handle_need_charge_cnt_65536_65
                                           _00410_DS_
                                           ;	.line	482; "MC32F7361.c"	if (flag_bat_is_empty)
                                           	MOVAI	0x00
                                           	ORAR	_flag_bat_is_empty
                                           	JBCLR	PFLAG,2
                                           	GOTO	_00433_DS_
                                           ;	.line	486; "MC32F7361.c"	LED_CHARGING_OFF(); // 
                                           	BSET	_IOP0bits,4
                                           ;	.line	487; "MC32F7361.c"	PWM2EC = 0;         // pwmPWM
                                           	BCLR	_T2CRbits,6
                                           ;	.line	488; "MC32F7361.c"	T2DATA = 0;
                                           	CLRR	_T2DATA
                                           ;	.line	489; "MC32F7361.c"	FLAG_BAT_IS_NEED_CHARGE = 0;
                                           	BCLR	_flag1,4
                                           ;	.line	490; "MC32F7361.c"	FLAG_DURING_CHARGING_BAT_IS_NULL = 1; // 
                                           	BSET	_flag1,7
                                           ;	.line	492; "MC32F7361.c"	break;
                                           	GOTO	_00443_DS_
                                           ;;unsigned compare: left < lit(0x8=8), size=1
                                           _00433_DS_
                                           ;	.line	494; "MC32F7361.c"	else if (cnt >= 8 || over_charging_cnt >= 8)
                                           	MOVAI	0x08
                                           	RSUBAR	_adc_scan_handle_cnt_65536_65
                                           	JBCLR	PFLAG,0
                                           	GOTO	_00428_DS_
                                           ;;genSkipc:3291: created from rifx:013B5EFC
                                           ;;unsigned compare: left < lit(0x8=8), size=1
                                           	MOVAI	0x08
                                           	RSUBAR	_over_charging_cnt
                                           	JBSET	PFLAG,0
                                           	GOTO	_00429_DS_
                                           ;;genSkipc:3291: created from rifx:013B5EFC
                                           _00428_DS_
                                           ;	.line	498; "MC32F7361.c"	full_charge_cnt++;
                                           	INCR	_full_charge_cnt
                                           	JBCLR	PFLAG,2
                                           	INCR	(_full_charge_cnt + 1)
                                           	JBCLR	PFLAG,2
                                           	INCR	(_full_charge_cnt + 2)
                                           	JBCLR	PFLAG,2
                                           	INCR	(_full_charge_cnt + 3)
                                           ;;unsigned compare: left < lit(0x64=100), size=4
                                           ;	.line	500; "MC32F7361.c"	if (full_charge_cnt >= 100 || over_charging_cnt >= 8) // 5.5s
                                           	MOVAI	0x00
                                           	RSUBAR	(_full_charge_cnt + 3)
                                           	JBSET	PFLAG,2
                                           	GOTO	_00588_DS_
                                           	MOVAI	0x00
                                           	RSUBAR	(_full_charge_cnt + 2)
                                           	JBSET	PFLAG,2
                                           	GOTO	_00588_DS_
                                           	MOVAI	0x00
                                           	RSUBAR	(_full_charge_cnt + 1)
                                           	JBSET	PFLAG,2
                                           	GOTO	_00588_DS_
                                           	MOVAI	0x64
                                           	RSUBAR	_full_charge_cnt
                                           _00588_DS_
                                           	JBCLR	PFLAG,0
                                           	GOTO	_00420_DS_
                                           ;;genSkipc:3291: created from rifx:013B5EFC
                                           ;;unsigned compare: left < lit(0x8=8), size=1
                                           	MOVAI	0x08
                                           	RSUBAR	_over_charging_cnt
                                           	JBSET	PFLAG,0
                                           	GOTO	_00476_DS_
                                           ;;genSkipc:3291: created from rifx:013B5EFC
                                           _00420_DS_
                                           ;	.line	502; "MC32F7361.c"	full_charge_cnt = 0; //
                                           	CLRR	_full_charge_cnt
                                           	CLRR	(_full_charge_cnt + 1)
                                           	CLRR	(_full_charge_cnt + 2)
                                           	CLRR	(_full_charge_cnt + 3)
                                           ;	.line	504; "MC32F7361.c"	LED_CHARGING_OFF(); // 
                                           	BSET	_IOP0bits,4
                                           ;	.line	505; "MC32F7361.c"	LED_WORKING_ON();   // 
                                           	BCLR	_IOP1bits,4
                                           ;	.line	506; "MC32F7361.c"	PWM2EC = 0;         // pwm
                                           	BCLR	_T2CRbits,6
                                           ;	.line	507; "MC32F7361.c"	T2DATA = 0;
                                           	CLRR	_T2DATA
                                           ;	.line	509; "MC32F7361.c"	FLAG_BAT_IS_NEED_CHARGE = 0;
                                           	BCLR	_flag1,4
                                           ;	.line	510; "MC32F7361.c"	FLAG_BAT_IS_FULL = 1;
                                           	BSET	_flag1,5
                                           ;	.line	511; "MC32F7361.c"	break;
                                           	GOTO	_00443_DS_
                                           ;;unsigned compare: left < lit(0x8=8), size=1
                                           _00429_DS_
                                           ;	.line	514; "MC32F7361.c"	else if (need_charge_cnt >= 8)
                                           	MOVAI	0x08
                                           	RSUBAR	_adc_scan_handle_need_charge_cnt_65536_65
                                           	JBSET	PFLAG,0
                                           	GOTO	_00476_DS_
                                           ;;genSkipc:3291: created from rifx:013B5EFC
                                           ;	.line	518; "MC32F7361.c"	LED_FULL_CHARGE_OFF(); // 
                                           	BSET	_IOP0bits,3
                                           ;	.line	519; "MC32F7361.c"	FLAG_BAT_IS_NEED_CHARGE = 1;
                                           	BSET	_flag1,4
                                           ;	.line	520; "MC32F7361.c"	FLAG_BAT_IS_FULL = 0;
                                           	BCLR	_flag1,5
                                           ;	.line	521; "MC32F7361.c"	break;
                                           	GOTO	_00443_DS_
                                           _00441_DS_
                                           ;	.line	527; "MC32F7361.c"	if (flag_bat_is_empty == 0 && adc_val <= ADCDETECT_BAT_FULL - ((ADCDETECT_BAT_FULL - ADCDETECT_BAT_WILL_FULL) / 2))
                                           	MOVAI	0x00
                                           	ORAR	_flag_bat_is_empty
                                           	JBSET	PFLAG,2
                                           	GOTO	_00436_DS_
                                           ;;swapping arguments (AOP_TYPEs 1/3)
                                           ;;unsigned compare: left >= lit(0xE0D=3597), size=2
                                           	MOVAI	0x0e
                                           	RSUBAR	(_adc_val + 1)
                                           	JBSET	PFLAG,2
                                           	GOTO	_00591_DS_
                                           	MOVAI	0x0d
                                           	RSUBAR	_adc_val
                                           _00591_DS_
                                           	JBCLR	PFLAG,0
                                           	GOTO	_00436_DS_
                                           ;;genSkipc:3291: created from rifx:013B5EFC
                                           ;	.line	529; "MC32F7361.c"	cnt++;
                                           	INCR	_adc_scan_handle_cnt_65536_65
                                           ;;unsigned compare: left < lit(0x8=8), size=1
                                           _00436_DS_
                                           ;	.line	532; "MC32F7361.c"	if (cnt >= 8)
                                           	MOVAI	0x08
                                           	RSUBAR	_adc_scan_handle_cnt_65536_65
                                           	JBSET	PFLAG,0
                                           	GOTO	_00476_DS_
                                           ;;genSkipc:3291: created from rifx:013B5EFC
                                           ;	.line	535; "MC32F7361.c"	FLAG_BAT_IS_NEED_CHARGE = 1;
                                           	BSET	_flag1,4
                                           ;	.line	536; "MC32F7361.c"	FLAG_BAT_IS_FULL = 0;
                                           	BCLR	_flag1,5
                                           ;	.line	537; "MC32F7361.c"	break;
                                           	GOTO	_00443_DS_
                                           _00476_DS_
                                           ;	.line	446; "MC32F7361.c"	for (i = 0; i < 10; i++)      //  // 55ms4.8ms
                                           	INCR	_i
                                           	GOTO	_00475_DS_
                                           _00443_DS_
                                           ;	.line	542; "MC32F7361.c"	cnt = 0;
                                           	CLRR	_adc_scan_handle_cnt_65536_65
                                           ;	.line	543; "MC32F7361.c"	adc_sel_pin(ADC_PIN_P00_AN0); // ( == USB-C / 2)
                                           	MOVAI	0x01
                                           	CALL	_adc_sel_pin
                                           ;	.line	544; "MC32F7361.c"	for (i = 0; i < 10; i++)
                                           	CLRR	_i
                                           ;;unsigned compare: left < lit(0xA=10), size=1
                                           _00478_DS_
                                           	MOVAI	0x0a
                                           	RSUBAR	_i
                                           	JBCLR	PFLAG,0
                                           	GOTO	_00480_DS_
                                           ;;genSkipc:3291: created from rifx:013B5EFC
                                           ;	.line	546; "MC32F7361.c"	adc_val = adc_get_val();
                                           	CALL	_adc_get_val
                                           	MOVRA	(_adc_val + 1)
                                           	MOVAR	STK00
                                           	MOVRA	_adc_val
                                           ;	.line	547; "MC32F7361.c"	if (flag_bat_is_empty) // 
                                           	MOVAI	0x00
                                           	ORAR	_flag_bat_is_empty
                                           	JBCLR	PFLAG,2
                                           	GOTO	_00445_DS_
                                           ;	.line	549; "MC32F7361.c"	adc_val = 4095; // if (adc_val < ADCDETECT_CHARING_THRESHOLD)
                                           	MOVAI	0xff
                                           	MOVRA	_adc_val
                                           	MOVAI	0x0f
                                           	MOVRA	(_adc_val + 1)
                                           _00445_DS_
                                           ;	.line	552; "MC32F7361.c"	if (adc_charging_val != 0)
                                           	MOVAR	_adc_charging_val
                                           	ORAR	(_adc_charging_val + 1)
                                           	JBCLR	PFLAG,2
                                           	GOTO	_00447_DS_
                                           ;	.line	554; "MC32F7361.c"	adc_charging_val += adc_val;
                                           	MOVAR	_adc_val
                                           	ADDRA	_adc_charging_val
                                           	MOVAR	(_adc_val + 1)
                                           	JBCLR	PFLAG,0
                                           	JZAR	(_adc_val + 1)
                                           	ADDRA	(_adc_charging_val + 1)
                                           ;;shiftRight_Left2ResultLit:5339: shCount=1, size=2, sign=0, same=1, offr=0
                                           ;	.line	555; "MC32F7361.c"	adc_charging_val /= 2;
                                           	BCLR	PFLAG,0
                                           	RRR	(_adc_charging_val + 1)
                                           	RRR	_adc_charging_val
                                           	GOTO	_00448_DS_
                                           _00447_DS_
                                           ;	.line	559; "MC32F7361.c"	adc_charging_val += adc_val;
                                           	MOVAR	_adc_val
                                           	ADDRA	_adc_charging_val
                                           	MOVAR	(_adc_val + 1)
                                           	JBCLR	PFLAG,0
                                           	JZAR	(_adc_val + 1)
                                           	ADDRA	(_adc_charging_val + 1)
                                           _00448_DS_
                                           ;	.line	562; "MC32F7361.c"	if (FLAG_IS_IN_CHARGING)
                                           	JBSET	_flag1,2
                                           	GOTO	_00471_DS_
                                           ;;unsigned compare: left < lit(0x800=2048), size=2
                                           ;	.line	565; "MC32F7361.c"	if (adc_val < ADCDETECT_CHARING_THRESHOLD)
                                           	MOVAI	0x08
                                           	RSUBAR	(_adc_val + 1)
                                           	JBSET	PFLAG,2
                                           	GOTO	_00594_DS_
                                           	MOVAI	0x00
                                           	RSUBAR	_adc_val
                                           _00594_DS_
                                           	JBCLR	PFLAG,0
                                           	GOTO	_00450_DS_
                                           ;;genSkipc:3291: created from rifx:013B5EFC
                                           ;	.line	567; "MC32F7361.c"	cnt++;
                                           	INCR	_adc_scan_handle_cnt_65536_65
                                           ;;unsigned compare: left < lit(0x8=8), size=1
                                           _00450_DS_
                                           ;	.line	570; "MC32F7361.c"	if (cnt >= 8)
                                           	MOVAI	0x08
                                           	RSUBAR	_adc_scan_handle_cnt_65536_65
                                           	JBSET	PFLAG,0
                                           	GOTO	_00479_DS_
                                           ;;genSkipc:3291: created from rifx:013B5EFC
                                           ;	.line	573; "MC32F7361.c"	LED_CHARGING_OFF(); // 
                                           	BSET	_IOP0bits,4
                                           ;	.line	574; "MC32F7361.c"	PWM2EC = 0;         // pwm
                                           	BCLR	_T2CRbits,6
                                           ;	.line	575; "MC32F7361.c"	T2DATA = 0;
                                           	CLRR	_T2DATA
                                           ;	.line	576; "MC32F7361.c"	LED_FULL_CHARGE_OFF(); // 
                                           	BSET	_IOP0bits,3
                                           ;	.line	577; "MC32F7361.c"	LED_WORKING_OFF();     //  =====================================
                                           	BSET	_IOP1bits,4
                                           ;	.line	578; "MC32F7361.c"	FLAG_IS_IN_CHARGING = 0;
                                           	BCLR	_flag1,2
                                           ;	.line	579; "MC32F7361.c"	FLAG_DURING_CHARGING_BAT_IS_NULL = 0; // 
                                           	BCLR	_flag1,7
                                           ;	.line	580; "MC32F7361.c"	break;
                                           	GOTO	_00480_DS_
                                           _00471_DS_
                                           ;	.line	586; "MC32F7361.c"	if (flag_bat_is_empty == 0 && adc_val >= ADCDETECT_CHARING_THRESHOLD)
                                           	MOVAI	0x00
                                           	ORAR	_flag_bat_is_empty
                                           	JBSET	PFLAG,2
                                           	GOTO	_00463_DS_
                                           ;;unsigned compare: left < lit(0x800=2048), size=2
                                           	MOVAI	0x08
                                           	RSUBAR	(_adc_val + 1)
                                           	JBSET	PFLAG,2
                                           	GOTO	_00596_DS_
                                           	MOVAI	0x00
                                           	RSUBAR	_adc_val
                                           _00596_DS_
                                           	JBSET	PFLAG,0
                                           	GOTO	_00463_DS_
                                           ;;genSkipc:3291: created from rifx:013B5EFC
                                           ;	.line	588; "MC32F7361.c"	cnt++;
                                           	INCR	_adc_scan_handle_cnt_65536_65
                                           ;;unsigned compare: left < lit(0x8=8), size=1
                                           _00463_DS_
                                           ;	.line	612; "MC32F7361.c"	if (cnt >= 8)
                                           	MOVAI	0x08
                                           	RSUBAR	_adc_scan_handle_cnt_65536_65
                                           	JBSET	PFLAG,0
                                           	GOTO	_00479_DS_
                                           ;;genSkipc:3291: created from rifx:013B5EFC
                                           ;	.line	615; "MC32F7361.c"	full_charge_cnt = 0;
                                           	CLRR	_full_charge_cnt
                                           	CLRR	(_full_charge_cnt + 1)
                                           	CLRR	(_full_charge_cnt + 2)
                                           	CLRR	(_full_charge_cnt + 3)
                                           ;	.line	616; "MC32F7361.c"	over_charging_cnt = 0;
                                           	CLRR	_over_charging_cnt
                                           ;	.line	618; "MC32F7361.c"	LED_CHARGING_ON(); // 
                                           	BCLR	_IOP0bits,4
                                           ;	.line	619; "MC32F7361.c"	PWM2EC = 1;        // pwm
                                           	BSET	_T2CRbits,6
                                           ;	.line	620; "MC32F7361.c"	FLAG_IS_IN_CHARGING = 1;
                                           	BSET	_flag1,2
                                           ;	.line	621; "MC32F7361.c"	break;
                                           	GOTO	_00480_DS_
                                           _00479_DS_
                                           ;	.line	544; "MC32F7361.c"	for (i = 0; i < 10; i++)
                                           	INCR	_i
                                           	GOTO	_00478_DS_
                                           _00480_DS_
                                           ;	.line	625; "MC32F7361.c"	}
                                           	RETURN	
                                           ; exit point of _adc_scan_handle
                                           
                                           ;***
                                           ;  pBlock Stats: dbName = C
                                           ;***
                                           ;entry:  _key_scan_handle	;Function start
                                           ; 2 exit points
                                           ;has an exit
                                           ;functions called:
                                           ;   _delay_ms
                                           ;   _delay_ms
                                           ;   _delay_ms
                                           ;   _delay_ms
                                           ;   _delay_ms
                                           ;   _delay_ms
                                           ;   _delay_ms
                                           ;   _delay_ms
                                           ;3 compiler assigned registers:
                                           ;   STK00
                                           ;   r0x103D
                                           ;   r0x103E
                                           ;; Starting pCode block
                                           _key_scan_handle	;Function start
                                           ; 2 exit points
                                           ;	.line	293; "MC32F7361.c"	if (0 == KEY_MODE_PIN)
                                           	JBCLR	_IOP0bits,1
                                           	GOTO	_00294_DS_
                                           ;	.line	300; "MC32F7361.c"	delay_ms(20); // 
                                           	MOVAI	0x14
                                           	MOVRA	STK00
                                           	MOVAI	0x00
                                           	CALL	_delay_ms
                                           ;	.line	302; "MC32F7361.c"	if (0 == KEY_MODE_PIN)
                                           	JBCLR	_IOP0bits,1
                                           	GOTO	_00296_DS_
                                           ;	.line	305; "MC32F7361.c"	while (0 == KEY_MODE_PIN)
                                           	CLRR	r0x103D
                                           	CLRR	r0x103E
                                           _00252_DS_
                                           	JBCLR	_IOP0bits,1
                                           	GOTO	_00254_DS_
                                           ;;unsigned compare: left < lit(0xFFFF=65535), size=2
                                           ;	.line	308; "MC32F7361.c"	if (press_cnt < 65535)
                                           	MOVAI	0xff
                                           	RSUBAR	r0x103E
                                           	JBSET	PFLAG,2
                                           	GOTO	_00390_DS_
                                           	MOVAI	0xff
                                           	RSUBAR	r0x103D
                                           _00390_DS_
                                           	JBCLR	PFLAG,0
                                           	GOTO	_00234_DS_
                                           ;;genSkipc:3291: created from rifx:013B5EFC
                                           ;	.line	309; "MC32F7361.c"	press_cnt++;
                                           	INCR	r0x103D
                                           	JBCLR	PFLAG,2
                                           	INCR	r0x103E
                                           ;;unsigned compare: left < lit(0x7D0=2000), size=2
                                           _00234_DS_
                                           ;	.line	311; "MC32F7361.c"	if (press_cnt >= 2000)
                                           	MOVAI	0x07
                                           	RSUBAR	r0x103E
                                           	JBSET	PFLAG,2
                                           	GOTO	_00391_DS_
                                           	MOVAI	0xd0
                                           	RSUBAR	r0x103D
                                           _00391_DS_
                                           	JBSET	PFLAG,0
                                           	GOTO	_00251_DS_
                                           ;;genSkipc:3291: created from rifx:013B5EFC
                                           ;	.line	315; "MC32F7361.c"	if (0 == flag_is_key_mode_hold)
                                           	MOVAI	0x00
                                           	ORAR	_key_scan_handle_flag_is_key_mode_hold_131072_34
                                           	JBSET	PFLAG,2
                                           	GOTO	_00251_DS_
                                           ;	.line	317; "MC32F7361.c"	flag_is_key_mode_hold = 1; // 
                                           	MOVAI	0x01
                                           	MOVRA	_key_scan_handle_flag_is_key_mode_hold_131072_34
                                           ;	.line	319; "MC32F7361.c"	if (0 == FLAG_IS_DEVICE_OPEN &&
                                           	JBCLR	_flag1,0
                                           	GOTO	_00238_DS_
                                           ;	.line	321; "MC32F7361.c"	0 == FLAG_IS_NOT_OPEN_DEVICE)
                                           	JBCLR	_flag1,6
                                           	GOTO	_00238_DS_
                                           ;	.line	325; "MC32F7361.c"	LED_WORKING_ON(); // 
                                           	BCLR	_IOP1bits,4
                                           ;	.line	327; "MC32F7361.c"	FLAG_IS_DEVICE_OPEN = 1;
                                           	BSET	_flag1,0
                                           ;	.line	331; "MC32F7361.c"	T0DATA = 115;
                                           	MOVAI	0x73
                                           	MOVRA	_T0DATA
                                           ;	.line	332; "MC32F7361.c"	T1DATA = 115; //  89.9%
                                           	MOVAI	0x73
                                           	MOVRA	_T1DATA
                                           ;	.line	335; "MC32F7361.c"	mode_flag = MODE_1; //  MODE_2
                                           	CLRR	_mode_flag
                                           ;	.line	338; "MC32F7361.c"	PWM0EC = 1;
                                           	BSET	_T0CRbits,6
                                           	GOTO	_00251_DS_
                                           _00238_DS_
                                           ;	.line	343; "MC32F7361.c"	LED_WORKING_OFF(); // 
                                           	BSET	_IOP1bits,4
                                           ;	.line	344; "MC32F7361.c"	HEATING_OFF();     // 
                                           	BCLR	_IOP1bits,2
                                           ;	.line	345; "MC32F7361.c"	FLAG_IS_DEVICE_OPEN = 0;
                                           	BCLR	_flag1,0
                                           ;	.line	346; "MC32F7361.c"	FLAG_IS_HEATING = 0;
                                           	BCLR	_flag1,1
                                           ;	.line	348; "MC32F7361.c"	mode_flag = MODE_1; //  MODE_2
                                           	CLRR	_mode_flag
                                           ;	.line	351; "MC32F7361.c"	PWM0EC = 0;
                                           	BCLR	_T0CRbits,6
                                           ;	.line	352; "MC32F7361.c"	PWM1EC = 0;
                                           	BCLR	_T1CRbits,6
                                           _00251_DS_
                                           ;	.line	357; "MC32F7361.c"	delay_ms(1);
                                           	MOVAI	0x01
                                           	MOVRA	STK00
                                           	MOVAI	0x00
                                           	CALL	_delay_ms
                                           	GOTO	_00252_DS_
                                           _00254_DS_
                                           ;	.line	360; "MC32F7361.c"	flag_is_key_mode_hold = 0; // 
                                           	CLRR	_key_scan_handle_flag_is_key_mode_hold_131072_34
                                           ;;unsigned compare: left < lit(0x2EE=750), size=2
                                           ;	.line	362; "MC32F7361.c"	if (press_cnt < 750)
                                           	MOVAI	0x02
                                           	RSUBAR	r0x103E
                                           	JBSET	PFLAG,2
                                           	GOTO	_00392_DS_
                                           	MOVAI	0xee
                                           	RSUBAR	r0x103D
                                           _00392_DS_
                                           	JBCLR	PFLAG,0
                                           	GOTO	_00296_DS_
                                           ;;genSkipc:3291: created from rifx:013B5EFC
                                           ;	.line	365; "MC32F7361.c"	if (FLAG_IS_DEVICE_OPEN)
                                           	JBSET	_flag1,0
                                           	GOTO	_00296_DS_
                                           ;	.line	368; "MC32F7361.c"	if (FLAG_IS_DEVICE_OPEN)
                                           	JBSET	_flag1,0
                                           	GOTO	_00296_DS_
                                           ;	.line	371; "MC32F7361.c"	if (MODE_1 == mode_flag)
                                           	MOVAI	0x00
                                           	ORAR	_mode_flag
                                           	JBSET	PFLAG,2
                                           	GOTO	_00261_DS_
                                           ;	.line	374; "MC32F7361.c"	T0DATA = 255;
                                           	MOVAI	0xff
                                           	MOVRA	_T0DATA
                                           ;	.line	375; "MC32F7361.c"	T1DATA = 255; // 100%TxLOAD
                                           	MOVAI	0xff
                                           	MOVRA	_T1DATA
                                           ;	.line	377; "MC32F7361.c"	mode_flag = MODE_2;
                                           	MOVAI	0x01
                                           	MOVRA	_mode_flag
                                           	GOTO	_00296_DS_
                                           _00261_DS_
                                           ;	.line	379; "MC32F7361.c"	else if (MODE_2 == mode_flag)
                                           	MOVAR	_mode_flag
                                           	XORAI	0x01
                                           	JBSET	PFLAG,2
                                           	GOTO	_00258_DS_
                                           ;	.line	382; "MC32F7361.c"	T0DATA = 103;
                                           	MOVAI	0x67
                                           	MOVRA	_T0DATA
                                           ;	.line	383; "MC32F7361.c"	T1DATA = 103; // 80.5%
                                           	MOVAI	0x67
                                           	MOVRA	_T1DATA
                                           ;	.line	385; "MC32F7361.c"	mode_flag = MODE_3;
                                           	MOVAI	0x02
                                           	MOVRA	_mode_flag
                                           	GOTO	_00296_DS_
                                           _00258_DS_
                                           ;	.line	387; "MC32F7361.c"	else if (MODE_3 == mode_flag)
                                           	MOVAR	_mode_flag
                                           	XORAI	0x02
                                           	JBSET	PFLAG,2
                                           	GOTO	_00296_DS_
                                           ;	.line	390; "MC32F7361.c"	T0DATA = 115;
                                           	MOVAI	0x73
                                           	MOVRA	_T0DATA
                                           ;	.line	391; "MC32F7361.c"	T1DATA = 115; // 89.9%
                                           	MOVAI	0x73
                                           	MOVRA	_T1DATA
                                           ;	.line	392; "MC32F7361.c"	mode_flag = MODE_1;
                                           	CLRR	_mode_flag
                                           	GOTO	_00296_DS_
                                           _00294_DS_
                                           ;	.line	399; "MC32F7361.c"	else if (0 == KEY_HEAT_PIN)
                                           	JBCLR	_IOP1bits,1
                                           	GOTO	_00296_DS_
                                           ;	.line	403; "MC32F7361.c"	delay_ms(20); // 
                                           	MOVAI	0x14
                                           	MOVRA	STK00
                                           	MOVAI	0x00
                                           	CALL	_delay_ms
                                           ;	.line	404; "MC32F7361.c"	if (0 == KEY_HEAT_PIN)
                                           	JBCLR	_IOP1bits,1
                                           	GOTO	_00296_DS_
                                           ;	.line	407; "MC32F7361.c"	while (0 == KEY_HEAT_PIN)
                                           	CLRR	r0x103D
                                           	CLRR	r0x103E
                                           _00273_DS_
                                           	JBCLR	_IOP1bits,1
                                           	GOTO	_00275_DS_
                                           ;;unsigned compare: left < lit(0xFFFF=65535), size=2
                                           ;	.line	410; "MC32F7361.c"	if (press_cnt < 65535)
                                           	MOVAI	0xff
                                           	RSUBAR	r0x103E
                                           	JBSET	PFLAG,2
                                           	GOTO	_00393_DS_
                                           	MOVAI	0xff
                                           	RSUBAR	r0x103D
                                           _00393_DS_
                                           	JBCLR	PFLAG,0
                                           	GOTO	_00272_DS_
                                           ;;genSkipc:3291: created from rifx:013B5EFC
                                           ;	.line	411; "MC32F7361.c"	press_cnt++;
                                           	INCR	r0x103D
                                           	JBCLR	PFLAG,2
                                           	INCR	r0x103E
                                           _00272_DS_
                                           ;	.line	412; "MC32F7361.c"	delay_ms(1);
                                           	MOVAI	0x01
                                           	MOVRA	STK00
                                           	MOVAI	0x00
                                           	CALL	_delay_ms
                                           	GOTO	_00273_DS_
                                           ;;unsigned compare: left < lit(0x2EE=750), size=2
                                           _00275_DS_
                                           ;	.line	415; "MC32F7361.c"	if (press_cnt < 750)
                                           	MOVAI	0x02
                                           	RSUBAR	r0x103E
                                           	JBSET	PFLAG,2
                                           	GOTO	_00394_DS_
                                           	MOVAI	0xee
                                           	RSUBAR	r0x103D
                                           _00394_DS_
                                           	JBCLR	PFLAG,0
                                           	GOTO	_00296_DS_
                                           ;;genSkipc:3291: created from rifx:013B5EFC
                                           ;	.line	418; "MC32F7361.c"	if (FLAG_IS_DEVICE_OPEN)
                                           	JBSET	_flag1,0
                                           	GOTO	_00296_DS_
                                           ;	.line	421; "MC32F7361.c"	if (0 == FLAG_IS_HEATING)
                                           	JBCLR	_flag1,1
                                           	GOTO	_00279_DS_
                                           ;	.line	423; "MC32F7361.c"	HEATING_ON(); // 
                                           	BSET	_IOP1bits,2
                                           ;	.line	424; "MC32F7361.c"	FLAG_IS_HEATING = 1;
                                           	BSET	_flag1,1
                                           	GOTO	_00296_DS_
                                           _00279_DS_
                                           ;	.line	428; "MC32F7361.c"	HEATING_OFF(); // 
                                           	BCLR	_IOP1bits,2
                                           ;	.line	429; "MC32F7361.c"	FLAG_IS_HEATING = 0;
                                           	BCLR	_flag1,1
                                           _00296_DS_
                                           ;	.line	435; "MC32F7361.c"	}
                                           	RETURN	
                                           ; exit point of _key_scan_handle
                                           
                                           ;***
                                           ;  pBlock Stats: dbName = C
                                           ;***
                                           ;entry:  _Sys_Init	;Function start
                                           ; 2 exit points
                                           ;has an exit
                                           ;functions called:
                                           ;   _CLR_RAM
                                           ;   _IO_Init
                                           ;   _timer0_pwm_config
                                           ;   _timer1_pwm_config
                                           ;   _timer2_pwm_config
                                           ;   _key_config
                                           ;   _adc_config
                                           ;   _delay_ms
                                           ;   _CLR_RAM
                                           ;   _IO_Init
                                           ;   _timer0_pwm_config
                                           ;   _timer1_pwm_config
                                           ;   _timer2_pwm_config
                                           ;   _key_config
                                           ;   _adc_config
                                           ;   _delay_ms
                                           ;1 compiler assigned register :
                                           ;   STK00
                                           ;; Starting pCode block
                                           _Sys_Init	;Function start
                                           ; 2 exit points
                                           ;	.line	273; "MC32F7361.c"	GIE = 0;
                                           	BCLR	_MCRbits,7
                                           ;	.line	274; "MC32F7361.c"	CLR_RAM();
                                           	CALL	_CLR_RAM
                                           ;	.line	275; "MC32F7361.c"	IO_Init();
                                           	CALL	_IO_Init
                                           ;	.line	277; "MC32F7361.c"	timer0_pwm_config();
                                           	CALL	_timer0_pwm_config
                                           ;	.line	278; "MC32F7361.c"	timer1_pwm_config();
                                           	CALL	_timer1_pwm_config
                                           ;	.line	279; "MC32F7361.c"	timer2_pwm_config();
                                           	CALL	_timer2_pwm_config
                                           ;	.line	283; "MC32F7361.c"	key_config();
                                           	CALL	_key_config
                                           ;	.line	284; "MC32F7361.c"	adc_config();
                                           	CALL	_adc_config
                                           ;	.line	285; "MC32F7361.c"	delay_ms(100); // 
                                           	MOVAI	0x64
                                           	MOVRA	STK00
                                           	MOVAI	0x00
                                           	CALL	_delay_ms
                                           ;	.line	287; "MC32F7361.c"	GIE = 1;
                                           	BSET	_MCRbits,7
                                           ;	.line	288; "MC32F7361.c"	}
                                           	RETURN	
                                           ; exit point of _Sys_Init
                                           
                                           ;***
                                           ;  pBlock Stats: dbName = C
                                           ;***
                                           ;entry:  _adc_get_val_once	;Function start
                                           ; 2 exit points
                                           ;has an exit
                                           ;7 compiler assigned registers:
                                           ;   r0x1037
                                           ;   r0x1038
                                           ;   r0x1039
                                           ;   r0x103A
                                           ;   r0x103B
                                           ;   r0x103C
                                           ;   STK00
                                           ;; Starting pCode block
                                           _adc_get_val_once	;Function start
                                           ; 2 exit points
                                           ;	.line	234; "MC32F7361.c"	ADEOC = 0; // ADCAD
                                           	BCLR	_ADCR0bits,1
                                           _00224_DS_
                                           ;	.line	235; "MC32F7361.c"	while (!ADEOC)
                                           	JBSET	_ADCR0bits,1
                                           	GOTO	_00224_DS_
                                           ;	.line	237; "MC32F7361.c"	g_temp_value = ADRH; // 
                                           	MOVAR	_ADRH
                                           	MOVRA	r0x1037
                                           	CLRR	r0x1038
                                           ;	.line	238; "MC32F7361.c"	g_temp_value = g_temp_value << 4 | (ADRL & 0x0F);
                                           	SWAPAR	r0x1038
                                           	ANDAI	0xf0
                                           	MOVRA	r0x1039
                                           	SWAPAR	r0x1037
                                           	MOVRA	r0x103A
                                           	ANDAI	0x0f
                                           	ORRA	r0x1039
                                           	XORRA	r0x103A
                                           	MOVAR	_ADRL
                                           	MOVRA	r0x1037
                                           	CLRR	r0x1038
                                           	MOVAI	0x0f
                                           	ANDRA	r0x1037
                                           	CLRR	r0x1038
                                           ;;101	MOVAR	r0x1037
                                           ;;99	MOVRA	r0x103B
                                           ;;104	MOVAR	r0x1038
                                           ;;102	MOVRA	r0x103C
                                           ;;100	MOVAR	r0x103B
                                           	MOVAR	r0x1037
                                           	ORRA	r0x103A
                                           ;;103	MOVAR	r0x103C
                                           	MOVAI	0x00
                                           	ORRA	r0x1039
                                           ;	.line	262; "MC32F7361.c"	return g_temp_value;
                                           	MOVAR	r0x103A
                                           	MOVRA	STK00
                                           	MOVAR	r0x1039
                                           ;	.line	263; "MC32F7361.c"	}
                                           	RETURN	
                                           ; exit point of _adc_get_val_once
                                           
                                           ;***
                                           ;  pBlock Stats: dbName = C
                                           ;***
                                           ;entry:  _adc_get_val	;Function start
                                           ; 2 exit points
                                           ;has an exit
                                           ;16 compiler assigned registers:
                                           ;   r0x1037
                                           ;   r0x1038
                                           ;   r0x1039
                                           ;   r0x103A
                                           ;   r0x103B
                                           ;   r0x103C
                                           ;   r0x103D
                                           ;   r0x103E
                                           ;   r0x103F
                                           ;   r0x1040
                                           ;   r0x1041
                                           ;   r0x1042
                                           ;   r0x1043
                                           ;   r0x1044
                                           ;   r0x1045
                                           ;   STK00
                                           ;; Starting pCode block
                                           _adc_get_val	;Function start
                                           ; 2 exit points
                                           ;	.line	181; "MC32F7361.c"	u32 g_tmpbuff = 0;
                                           	CLRR	r0x1037
                                           	CLRR	r0x1038
                                           	CLRR	r0x1039
                                           	CLRR	r0x103A
                                           ;	.line	182; "MC32F7361.c"	u16 g_adcmax = 0;
                                           	CLRR	r0x103B
                                           	CLRR	r0x103C
                                           ;	.line	183; "MC32F7361.c"	u16 g_adcmin = 0xFFFF;
                                           	MOVAI	0xff
                                           	MOVRA	r0x103D
                                           	MOVRA	r0x103E
                                           ;	.line	186; "MC32F7361.c"	for (i = 0; i < 20; i++)
                                           	CLRR	r0x103F
                                           _00178_DS_
                                           ;	.line	188; "MC32F7361.c"	ADEOC = 0; // ADCAD
                                           	BCLR	_ADCR0bits,1
                                           _00167_DS_
                                           ;	.line	189; "MC32F7361.c"	while (!ADEOC)
                                           	JBSET	_ADCR0bits,1
                                           	GOTO	_00167_DS_
                                           ;	.line	191; "MC32F7361.c"	g_temp_value = ADRH; // 
                                           	MOVAR	_ADRH
                                           	MOVRA	r0x1040
                                           	CLRR	r0x1041
                                           ;	.line	192; "MC32F7361.c"	g_temp_value = g_temp_value << 4 | (ADRL & 0x0F);
                                           	SWAPAR	r0x1041
                                           	ANDAI	0xf0
                                           	MOVRA	r0x1042
                                           	SWAPAR	r0x1040
                                           	MOVRA	r0x1043
                                           	ANDAI	0x0f
                                           	ORRA	r0x1042
                                           	XORRA	r0x1043
                                           	MOVAR	_ADRL
                                           	MOVRA	r0x1040
                                           	CLRR	r0x1041
                                           	MOVAI	0x0f
                                           	ANDRA	r0x1040
                                           	CLRR	r0x1041
                                           ;;120	MOVAR	r0x1040
                                           	MOVAI	0x00
                                           	MOVRA	r0x1045
                                           ;;119	MOVAR	r0x1044
                                           	MOVAR	r0x1040
                                           	MOVRA	r0x1044
                                           	ORAR	r0x1043
                                           	MOVRA	r0x1040
                                           	MOVAR	r0x1045
                                           	ORAR	r0x1042
                                           	MOVRA	r0x1041
                                           ;;unsigned compare: left < lit(0x2=2), size=1
                                           ;	.line	193; "MC32F7361.c"	if (i < 2)
                                           	MOVAI	0x02
                                           	RSUBAR	r0x103F
                                           	JBSET	PFLAG,0
                                           	GOTO	_00176_DS_
                                           ;;genSkipc:3291: created from rifx:013B5EFC
                                           ;	.line	195; "MC32F7361.c"	if (g_temp_value > g_adcmax)
                                           	MOVAR	r0x1041
                                           	RSUBAR	r0x103C
                                           	JBSET	PFLAG,2
                                           	GOTO	_00218_DS_
                                           	MOVAR	r0x1040
                                           	RSUBAR	r0x103B
                                           _00218_DS_
                                           	JBCLR	PFLAG,0
                                           	GOTO	_00173_DS_
                                           ;;genSkipc:3291: created from rifx:013B5EFC
                                           ;	.line	196; "MC32F7361.c"	g_adcmax = g_temp_value; // 
                                           	MOVAR	r0x1040
                                           	MOVRA	r0x103B
                                           	MOVAR	r0x1041
                                           	MOVRA	r0x103C
                                           _00173_DS_
                                           ;	.line	197; "MC32F7361.c"	if (g_temp_value < g_adcmin)
                                           	MOVAR	r0x103E
                                           	RSUBAR	r0x1041
                                           	JBSET	PFLAG,2
                                           	GOTO	_00219_DS_
                                           	MOVAR	r0x103D
                                           	RSUBAR	r0x1040
                                           _00219_DS_
                                           	JBCLR	PFLAG,0
                                           	GOTO	_00175_DS_
                                           ;;genSkipc:3291: created from rifx:013B5EFC
                                           ;	.line	198; "MC32F7361.c"	g_adcmin = g_temp_value; // 
                                           	MOVAR	r0x1040
                                           	MOVRA	r0x103D
                                           	MOVAR	r0x1041
                                           	MOVRA	r0x103E
                                           ;;116	MOVAR	r0x1040
                                           ;;118	MOVAR	r0x1041
                                           _00175_DS_
                                           ;	.line	199; "MC32F7361.c"	g_tmpbuff += g_temp_value;
                                           	CLRR	r0x1044
                                           	CLRR	r0x1045
                                           ;;115	MOVAR	r0x1043
                                           	MOVAR	r0x1040
                                           	MOVRA	r0x1043
                                           	ADDRA	r0x1037
                                           ;;117	MOVAR	r0x1042
                                           	MOVAR	r0x1041
                                           	MOVRA	r0x1042
                                           	JBCLR	PFLAG,0
                                           	JZAR	r0x1042
                                           	ADDRA	r0x1038
                                           	MOVAR	r0x1044
                                           	JBCLR	PFLAG,0
                                           	JZAR	r0x1044
                                           	ADDRA	r0x1039
                                           	MOVAR	r0x1045
                                           	JBCLR	PFLAG,0
                                           	JZAR	r0x1045
                                           	ADDRA	r0x103A
                                           _00176_DS_
                                           ;	.line	186; "MC32F7361.c"	for (i = 0; i < 20; i++)
                                           	INCR	r0x103F
                                           ;;unsigned compare: left < lit(0x14=20), size=1
                                           	MOVAI	0x14
                                           	RSUBAR	r0x103F
                                           	JBSET	PFLAG,0
                                           	GOTO	_00178_DS_
                                           ;;genSkipc:3291: created from rifx:013B5EFC
                                           ;;114	MOVAR	r0x103B
                                           ;	.line	201; "MC32F7361.c"	g_tmpbuff -= g_adcmax;           // 
                                           	MOVAR	r0x103C
                                           	MOVRA	r0x1040
                                           	CLRR	r0x1041
                                           	CLRR	r0x1043
                                           ;;113	MOVAR	r0x103F
                                           	MOVAR	r0x103B
                                           	MOVRA	r0x103F
                                           	RSUBAR	r0x1037
                                           	MOVRA	r0x103B
                                           	MOVAR	r0x1038
                                           	MOVRA	r0x103C
                                           	MOVAR	r0x1040
                                           	JBSET	PFLAG,0
                                           	JZAR	r0x1040
                                           	RSUBRA	r0x103C
                                           	MOVAR	r0x1039
                                           	MOVRA	r0x1042
                                           	MOVAR	r0x1041
                                           	JBSET	PFLAG,0
                                           	JZAR	r0x1041
                                           	RSUBRA	r0x1042
                                           	MOVAR	r0x1043
                                           	JBSET	PFLAG,0
                                           	INCAR	r0x1043
                                           	RSUBAR	r0x103A
                                           	MOVRA	r0x1044
                                           ;;106	MOVAR	r0x103D
                                           ;;108	MOVAR	r0x103E
                                           ;	.line	202; "MC32F7361.c"	g_tmpbuff -= g_adcmin;           // 
                                           	CLRR	r0x1039
                                           	CLRR	r0x103A
                                           ;;105	MOVAR	r0x1037
                                           	MOVAR	r0x103D
                                           	MOVRA	r0x1037
                                           	RSUBRA	r0x103B
                                           ;;107	MOVAR	r0x1038
                                           	MOVAR	r0x103E
                                           	MOVRA	r0x1038
                                           	JBSET	PFLAG,0
                                           	JZAR	r0x1038
                                           	RSUBRA	r0x103C
                                           	MOVAR	r0x1039
                                           	JBSET	PFLAG,0
                                           	JZAR	r0x1039
                                           	RSUBRA	r0x1042
                                           	MOVAR	r0x103A
                                           	JBSET	PFLAG,0
                                           	JZAR	r0x103A
                                           	RSUBRA	r0x1044
                                           ;	.line	203; "MC32F7361.c"	g_temp_value = (g_tmpbuff >> 4); // 16
                                           	SWAPAR	r0x103B
                                           	ANDAI	0x0f
                                           	MOVRA	r0x1037
                                           	SWAPAR	r0x103C
                                           	MOVRA	r0x1038
                                           	ANDAI	0xf0
                                           	ORRA	r0x1037
                                           	XORRA	r0x1038
                                           	SWAPAR	r0x1042
                                           	MOVRA	r0x1039
                                           	ANDAI	0xf0
                                           	ORRA	r0x1038
                                           	XORRA	r0x1039
                                           	SWAPAR	r0x1044
                                           	MOVRA	r0x103A
                                           	ANDAI	0xf0
                                           	ORRA	r0x1039
                                           	XORRA	r0x103A
                                           ;;110	MOVAR	r0x1037
                                           ;;112	MOVAR	r0x1038
                                           ;;109	MOVAR	r0x103B
                                           ;	.line	227; "MC32F7361.c"	return g_temp_value;
                                           	MOVAR	r0x1037
                                           	MOVRA	r0x103B
                                           	MOVRA	STK00
                                           ;;111	MOVAR	r0x103C
                                           	MOVAR	r0x1038
                                           	MOVRA	r0x103C
                                           ;	.line	228; "MC32F7361.c"	}
                                           	RETURN	
                                           ; exit point of _adc_get_val
                                           
                                           ;***
                                           ;  pBlock Stats: dbName = C
                                           ;***
                                           ;entry:  _adc_sel_pin	;Function start
                                           ; 2 exit points
                                           ;has an exit
                                           ;functions called:
                                           ;   _delay_ms
                                           ;   _delay_ms
                                           ;2 compiler assigned registers:
                                           ;   r0x103D
                                           ;   STK00
                                           ;; Starting pCode block
                                           _adc_sel_pin	;Function start
                                           ; 2 exit points
                                           ;	.line	154; "MC32F7361.c"	void adc_sel_pin(u8 adc_pin)
                                           	MOVRA	r0x103D
                                           ;	.line	157; "MC32F7361.c"	switch (adc_pin)
                                           	MOVAR	r0x103D
                                           	XORAI	0x01
                                           	JBSET	PFLAG,2
                                           	GOTO	_00161_DS_
                                           	GOTO	_00147_DS_
                                           _00161_DS_
                                           	MOVAR	r0x103D
                                           	XORAI	0x02
                                           	JBSET	PFLAG,2
                                           	GOTO	_00162_DS_
                                           	GOTO	_00148_DS_
                                           _00162_DS_
                                           	GOTO	_00150_DS_
                                           _00147_DS_
                                           ;	.line	160; "MC32F7361.c"	ADCR0 &= ~(0x0F << 4); // 
                                           	MOVAI	0x0f
                                           	ANDRA	_ADCR0
                                           ;	.line	162; "MC32F7361.c"	break;
                                           	GOTO	_00150_DS_
                                           _00148_DS_
                                           ;	.line	165; "MC32F7361.c"	ADCR0 &= ~(0x0F << 4); // 
                                           	MOVAI	0x0f
                                           	ANDRA	_ADCR0
                                           ;	.line	166; "MC32F7361.c"	ADCR0 |= 0x01 << 4;    // AIN1--P02;
                                           	BSET	_ADCR0,4
                                           _00150_DS_
                                           ;	.line	173; "MC32F7361.c"	delay_ms(1); // adcadc
                                           	MOVAI	0x01
                                           	MOVRA	STK00
                                           	MOVAI	0x00
                                           	CALL	_delay_ms
                                           ;	.line	174; "MC32F7361.c"	}
                                           	RETURN	
                                           ; exit point of _adc_sel_pin
                                           
                                           ;***
                                           ;  pBlock Stats: dbName = C
                                           ;***
                                           ;entry:  _key_config	;Function start
                                           ; 2 exit points
                                           ;has an exit
                                           ;; Starting pCode block
                                           _key_config	;Function start
                                           ; 2 exit points
                                           ;	.line	137; "MC32F7361.c"	P13PU = 1; // 
                                           	BSET	_PUP1bits,3
                                           ;	.line	138; "MC32F7361.c"	P13OE = 0; // 
                                           	BCLR	_OEP1bits,3
                                           ;	.line	141; "MC32F7361.c"	INT0M0 = 1; // INT0M0INT0M1INT0
                                           	BSET	_MCRbits,0
                                           ;	.line	142; "MC32F7361.c"	INT0M1 = 0;
                                           	BCLR	_MCRbits,1
                                           ;	.line	143; "MC32F7361.c"	P11PU = 1;
                                           	BSET	_PUP1bits,1
                                           ;	.line	144; "MC32F7361.c"	P11OE = 0;
                                           	BCLR	_OEP1bits,1
                                           ;	.line	145; "MC32F7361.c"	INT0IF = 0; // 
                                           	BCLR	_INTFbits,2
                                           ;	.line	146; "MC32F7361.c"	INT0IE = 1; // 
                                           	BSET	_INTEbits,2
                                           ;	.line	149; "MC32F7361.c"	P01PU = 1;
                                           	BSET	_PUP0bits,1
                                           ;	.line	150; "MC32F7361.c"	P01OE = 0;
                                           	BCLR	_OEP0bits,1
                                           ;	.line	151; "MC32F7361.c"	}
                                           	RETURN	
                                           ; exit point of _key_config
                                           
                                           ;***
                                           ;  pBlock Stats: dbName = C
                                           ;***
                                           ;entry:  _timer2_pwm_config	;Function start
                                           ; 2 exit points
                                           ;has an exit
                                           ;; Starting pCode block
                                           _timer2_pwm_config	;Function start
                                           ; 2 exit points
                                           ;	.line	106; "MC32F7361.c"	T2CKS0 = 1;
                                           	BSET	_T2CRbits,3
                                           ;	.line	107; "MC32F7361.c"	T2CKS1 = 0;
                                           	BCLR	_T2CRbits,4
                                           ;	.line	109; "MC32F7361.c"	TMRCKS0 = 0;
                                           	BCLR	_PWMCR1bits,3
                                           ;	.line	110; "MC32F7361.c"	TMRCKS1 = 1;
                                           	BSET	_PWMCR1bits,4
                                           ;	.line	112; "MC32F7361.c"	T2LOAD = 209; //
                                           	MOVAI	0xd1
                                           	MOVRA	_T2LOAD
                                           ;	.line	113; "MC32F7361.c"	T2DATA = 0;
                                           	CLRR	_T2DATA
                                           ;	.line	114; "MC32F7361.c"	PWM2EC = 0; // PWM
                                           	BCLR	_T2CRbits,6
                                           ;	.line	116; "MC32F7361.c"	T2EN = 1;
                                           	BSET	_T2CRbits,7
                                           ;	.line	117; "MC32F7361.c"	}
                                           	RETURN	
                                           ; exit point of _timer2_pwm_config
                                           
                                           ;***
                                           ;  pBlock Stats: dbName = C
                                           ;***
                                           ;entry:  _timer1_pwm_config	;Function start
                                           ; 2 exit points
                                           ;has an exit
                                           ;; Starting pCode block
                                           _timer1_pwm_config	;Function start
                                           ; 2 exit points
                                           ;	.line	94; "MC32F7361.c"	T1CR |= 0x02; // 4
                                           	BSET	_T1CR,1
                                           ;	.line	95; "MC32F7361.c"	T1LOAD = 128 - 1;
                                           	MOVAI	0x7f
                                           	MOVRA	_T1LOAD
                                           ;	.line	96; "MC32F7361.c"	T1DATA = 25; //  == T1DATA / T1LOAD
                                           	MOVAI	0x19
                                           	MOVRA	_T1DATA
                                           ;	.line	97; "MC32F7361.c"	PWM1EC = 0;  // PWM1
                                           	BCLR	_T1CRbits,6
                                           ;	.line	98; "MC32F7361.c"	T1EN = 1;    // 
                                           	BSET	_T1CRbits,7
                                           ;	.line	99; "MC32F7361.c"	}
                                           	RETURN	
                                           ; exit point of _timer1_pwm_config
                                           
                                           ;***
                                           ;  pBlock Stats: dbName = C
                                           ;***
                                           ;entry:  _timer0_pwm_config	;Function start
                                           ; 2 exit points
                                           ;has an exit
                                           ;; Starting pCode block
                                           _timer0_pwm_config	;Function start
                                           ; 2 exit points
                                           ;	.line	81; "MC32F7361.c"	T0CR |= 0x02; // 4
                                           	BSET	_T0CR,1
                                           ;	.line	82; "MC32F7361.c"	T0LOAD = 128 - 1;
                                           	MOVAI	0x7f
                                           	MOVRA	_T0LOAD
                                           ;	.line	83; "MC32F7361.c"	T0DATA = 25; //  == T0DATA / T0LOAD
                                           	MOVAI	0x19
                                           	MOVRA	_T0DATA
                                           ;	.line	84; "MC32F7361.c"	PWM0EC = 0;  // PWM
                                           	BCLR	_T0CRbits,6
                                           ;	.line	85; "MC32F7361.c"	T0EN = 1;    // 
                                           	BSET	_T0CRbits,7
                                           ;	.line	86; "MC32F7361.c"	}
                                           	RETURN	
                                           ; exit point of _timer0_pwm_config
                                           
                                           ;***
                                           ;  pBlock Stats: dbName = C
                                           ;***
                                           ;entry:  _adc_config	;Function start
                                           ; 2 exit points
                                           ;has an exit
                                           ;; Starting pCode block
                                           _adc_config	;Function start
                                           ; 2 exit points
                                           ;	.line	62; "MC32F7361.c"	P00OE = 0; // 
                                           	BCLR	_OEP0bits,0
                                           ;	.line	63; "MC32F7361.c"	P00DC = 1; // 
                                           	BSET	_P0ADCRbits,0
                                           ;	.line	66; "MC32F7361.c"	P02OE = 0; // 
                                           	BCLR	_OEP0bits,2
                                           ;	.line	67; "MC32F7361.c"	P02DC = 1; // 
                                           	BSET	_P0ADCRbits,2
                                           ;	.line	69; "MC32F7361.c"	ADCR0 = 0x0A; // 12ADCADC
                                           	MOVAI	0x0a
                                           	MOVRA	_ADCR0
                                           ;	.line	70; "MC32F7361.c"	ADCR1 = 0xE1; // 125K  3V
                                           	MOVAI	0xe1
                                           	MOVRA	_ADCR1
                                           ;	.line	71; "MC32F7361.c"	ADCR2 = 0xFF; // ADC15ADC
                                           	MOVAI	0xff
                                           	MOVRA	_ADCR2
                                           ;	.line	72; "MC32F7361.c"	ADEN = 1;     // ADC
                                           	BSET	_ADCR0bits,0
                                           ;	.line	73; "MC32F7361.c"	}
                                           	RETURN	
                                           ; exit point of _adc_config
                                           
                                           ;***
                                           ;  pBlock Stats: dbName = C
                                           ;***
                                           ;entry:  _IO_Init	;Function start
                                           ; 2 exit points
                                           ;has an exit
                                           ;; Starting pCode block
                                           _IO_Init	;Function start
                                           ; 2 exit points
                                           ;	.line	37; "MC32F7361.c"	IOP0 = 0x00;   // io
                                           	CLRR	_IOP0
                                           ;	.line	38; "MC32F7361.c"	OEP0 = 0x3F;   // io 1:out  0:in
                                           	MOVAI	0x3f
                                           	MOVRA	_OEP0
                                           ;	.line	39; "MC32F7361.c"	PUP0 = 0x00;   // io   1:enable  0:disable
                                           	CLRR	_PUP0
                                           ;	.line	40; "MC32F7361.c"	PDP0 = 0x00;   // io   1:enable  0:disable
                                           	CLRR	_PDP0
                                           ;	.line	41; "MC32F7361.c"	P0ADCR = 0x00; // io  1:  0:io
                                           	CLRR	_P0ADCR
                                           ;	.line	43; "MC32F7361.c"	IOP1 = 0x00;   // io
                                           	CLRR	_IOP1
                                           ;	.line	44; "MC32F7361.c"	OEP1 = 0xFF;   // io 1:out  0:in
                                           	MOVAI	0xff
                                           	MOVRA	_OEP1
                                           ;	.line	45; "MC32F7361.c"	PUP1 = 0x00;   // io   1:enable  0:disable
                                           	CLRR	_PUP1
                                           ;	.line	46; "MC32F7361.c"	PDP1 = 0x00;   // io   1:enable  0:disable
                                           	CLRR	_PDP1
                                           ;	.line	47; "MC32F7361.c"	P1ADCR = 0x00; // io  1:  0:io
                                           	CLRR	_P1ADCR
                                           ;	.line	49; "MC32F7361.c"	IOP2 = 0x00; // io
                                           	CLRR	_IOP2
                                           ;	.line	50; "MC32F7361.c"	OEP2 = 0xFF; // io 1:out  0:in
                                           	MOVAI	0xff
                                           	MOVRA	_OEP2
                                           ;	.line	51; "MC32F7361.c"	PUP2 = 0x00; // io   1:enable  0:disable
                                           	CLRR	_PUP2
                                           ;	.line	52; "MC32F7361.c"	PDP2 = 0x00; // io   1:enable  0:disablea
                                           	CLRR	_PDP2
                                           ;	.line	54; "MC32F7361.c"	PMOD = 0x00;  // P00P01P13 io
                                           	CLRR	_PMOD
                                           ;	.line	55; "MC32F7361.c"	DRVCR = 0x80; // 
                                           	MOVAI	0x80
                                           	MOVRA	_DRVCR
                                           ;	.line	56; "MC32F7361.c"	}
                                           	RETURN	
                                           ; exit point of _IO_Init
                                           
                                           ;***
                                           ;  pBlock Stats: dbName = C
                                           ;***
                                           ;entry:  _CLR_RAM	;Function start
                                           ; 2 exit points
                                           ;has an exit
                                           ;; Starting pCode block
                                           _CLR_RAM	;Function start
                                           ; 2 exit points
                                           ;	.line	22; "MC32F7361.c"	for (FSR0 = 0; FSR0 < 0xff; FSR0++)
                                           	CLRR	_FSR0
                                           ;;unsigned compare: left < lit(0xFF=255), size=1
                                           _00118_DS_
                                           	MOVAI	0xff
                                           	RSUBAR	_FSR0
                                           	JBCLR	PFLAG,0
                                           	GOTO	_00116_DS_
                                           ;;genSkipc:3291: created from rifx:013B5EFC
                                           ;	.line	24; "MC32F7361.c"	INDF0 = 0x00;
                                           	CLRR	_INDF0
                                           ;	.line	22; "MC32F7361.c"	for (FSR0 = 0; FSR0 < 0xff; FSR0++)
                                           	INCR	_FSR0
                                           	GOTO	_00118_DS_
                                           _00116_DS_
                                           ;	.line	26; "MC32F7361.c"	FSR0 = 0xFF;
                                           	MOVAI	0xff
                                           	MOVRA	_FSR0
                                           ;	.line	27; "MC32F7361.c"	INDF0 = 0x00;
                                           	CLRR	_INDF0
                                           ;	.line	28; "MC32F7361.c"	}
                                           	RETURN	
                                           ; exit point of _CLR_RAM
                                           
                                           ;***
                                           ;  pBlock Stats: dbName = C
                                           ;***
                                           ;entry:  _delay_ms	;Function start
                                           ; 2 exit points
                                           ;has an exit
                                           ;7 compiler assigned registers:
                                           ;   r0x1037
                                           ;   STK00
                                           ;   r0x1038
                                           ;   r0x1039
                                           ;   r0x103A
                                           ;   r0x103B
                                           ;   r0x103C
                                           ;; Starting pCode block
                                           _delay_ms	;Function start
                                           ; 2 exit points
                                           ;	.line	265; "user.h"	void delay_ms(u16 xms)
                                           	MOVRA	r0x1037
                                           	MOVAR	STK00
                                           	MOVRA	r0x1038
                                           _00108_DS_
                                           ;	.line	267; "user.h"	while (xms)
                                           	MOVAR	r0x1038
                                           	ORAR	r0x1037
                                           	JBCLR	PFLAG,2
                                           	GOTO	_00111_DS_
                                           ;	.line	270; "user.h"	while (i--)
                                           	MOVAI	0x3c
                                           	MOVRA	r0x1039
                                           	MOVAI	0x02
                                           	MOVRA	r0x103A
                                           _00105_DS_
                                           	MOVAR	r0x1039
                                           	MOVRA	r0x103B
                                           	MOVAR	r0x103A
                                           	MOVRA	r0x103C
                                           	MOVAI	0xff
                                           	ADDRA	r0x1039
                                           	JBSET	PFLAG,0
                                           	DECR	r0x103A
                                           	MOVAR	r0x103B
                                           	ORAR	r0x103C
                                           	JBCLR	PFLAG,2
                                           	GOTO	_00107_DS_
                                           ;	.line	272; "user.h"	Nop();
                                           	nop	
                                           	GOTO	_00105_DS_
                                           _00107_DS_
                                           ;	.line	274; "user.h"	xms--; //  --while()
                                           	MOVAI	0xff
                                           	ADDRA	r0x1038
                                           	JBSET	PFLAG,0
                                           	DECR	r0x1037
                                           ;	.line	278; "user.h"	__endasm;
                                           	;
                                           	clrwdt;
                                           	
                                           	GOTO	_00108_DS_
                                           _00111_DS_
                                           ;	.line	280; "user.h"	}
                                           	RETURN	
                                           ; exit point of _delay_ms
                                           
                                           
                                           ;	code size estimation:
                                           ;	 1605+    0 =  1605 instructions ( 3210 byte)
                                           
                                           	end


MEMORY USAGE MAP ('X' = Used,  '-' = Unused)

0000 : XX-------------- XXXXXXXXXXXXXXXX XXXXXXXXXXXXXXXX XXXXXXXXXXXXXXXX
0040 : XXXXXXXXXXXXXXXX XXXXXXXXXXXXXXXX XXXXXXXXXXXXXXXX XXXXXXXXXXXXXXXX
0080 : XXXXXXXXXXXXXXXX XXXXXXXXXXXXXXXX XXXXXXXXXXXXXXXX XXXXXXXXXXXXXXXX
00C0 : XXXXXXXXXXXXXXXX XXXXXXXXXXXXXXXX XXXXXXXXXXXXXXXX XXXXXXXXXXXXXXXX
0100 : XXXXXXXXXXXXXXXX XXXXXXXXXXXXXXXX XXXXXXXXXXXXXXXX XXXXXXXXXXXXXXXX
0140 : XXXXXXXXXXXXXXXX XXXXXXXXXXXXXXXX XXXXXXXXXXXXXXXX XXXXXXXXXXXXXXXX
0180 : XXXXXXXXXXXXXXXX XXXXXXXXXXXXXXXX XXXXXXXXXXXXXXXX XXXXXXXXXXXXXXXX
01C0 : XXXXXXXXXXXXXXXX XXXXXXXXXXXXXXXX XXXXXXXXXXXXXXXX XXXXXXXXXXXXXXXX
0200 : XXXXXXXXXXXXXXXX XXXXXXXXXXXXXXXX XXXXXXXXXXXXXXXX XXXXXXXXXXXXXXXX
0240 : XXXXXXXXXXXXXXXX XXXXXXXXXXXXXXXX XXXXXXXXXXXXXXXX XXXXXXXXXXXXXXXX
0280 : XXXXXXXXXXXXXXXX XXXXXXXXXXXXXXXX XXXXXXXXXXXXXXXX XXXXXXXXXXXXXXXX
02C0 : XXXXXXXXXXXXXXXX XXXXXXXXXXXXXXXX XXXXXXXXXXXXXXXX XXXXXXXXXXXXXXXX
0300 : XXXXXXXXXXXXXXXX XXXXXXXXXXXXXXXX XXXXXXXXXXXXXXXX XXXXXXXXXXXXXXXX
0340 : XXXXXXXXXXXXXXXX XXXXXXXXXXXXXXXX XXXXXXXXXXXXXXXX XXXXXXXXXXXXXXXX
0380 : XXXXXXXXXXXXXXXX XXXXXXXXXXXXXXXX XXXXXXXXXXXXXXXX XXXXXXXXXXXXXXXX
03C0 : XXXXXXXXXXXXXXXX XXXXXXXXXXXXXXXX XXXXXXXXXXXXXXXX XXXXXXXXXXXXXXXX
0400 : XXXXXXXXXXXXXXXX XXXXXXXXXXXXXXXX XXXXXXXXXXXXXXXX XXXXXXXXXXXXXXXX
0440 : XXXXXXXXXXXXXXXX XXXXXXXXXXXXXXXX XXXXXXXXXXXXXXXX XXXXXXXXXXXXXXXX
0480 : XXXXXXXXXXXXXXXX XXXXXXXXXXXXXXXX XXXXXXXXXXXXXXXX XXXXXXXXXXXXXXXX
04C0 : XXXXXXXXXXXXXXXX XXXXXXXXXXXXXXXX XXXXXXXXXXXXXXXX XXXXXXXXXXXXXXXX
0500 : XXXXXXXXXXXXXXXX XXXXXXXXXXXXXXXX XXXXXXXXXXXXXXXX XXXXXXXXXXXXXXXX
0540 : XXXXXXXXXXXXXXXX XXXXXXXXXXXXXXXX XXXXXXXXXXXXXXXX XXXXXXXXXXXXXXXX
0580 : XXXXXXXXXXXXXXXX XXXXXXXXXXXXXXXX XXXXXXXXXXXXXXXX XXXXXXXXXXXXXXXX
05C0 : XXXXXXXXXXXXXXXX XXXXXXXXXXXXXXXX XXXXXXXXXXXXXXXX XXXXXXXXXXXXXXXX
0600 : XXXXXXXXXXXXXXXX XXXXXXXXXXXXXXXX XXXXXXXXXXXXXXXX XXXXXXXXXXXXXXXX
0640 : XXXXXXXXXXXXXXXX XXXXXXXXXXXXXXXX XXXXXXXXXXXXXXXX XXXXXXXXXXXXXXXX
0680 : XXXXXXXXXXXXXXXX XXXXXXXXXXXXXXXX XXXXXXXXXXXXXXXX XXXXXXXXXXXXXXXX
06C0 : XXXXXXXXXXXXXXXX XXXXXXXXXXXXXXXX XXXXXXXXXXXXXXXX XXXXXXXXXXXXXXXX
0700 : XXXXXXXXXXXXXXXX XXXXXXXXXXXXXXXX XXXXXXXXXXXXXXXX XXXXXXXXXXXXXXXX
0740 : XXXXXXXXXXXXXXXX XXXXXXXXXXXXXXXX XXXXXXXXXXXXXXXX XXXXXXXXXXXXXXXX
0780 : XXXXXXXXXXXXXXXX XXXXXXXXXXXXXXXX XXXXXXXXXXXXXXXX XXXXXXXXXXXXXXXX
07C0 : XXXXXXXXXXXXXXXX XXXXXXXXXXXXXXXX XXXXXXXXXXXXXXXX XXXXXXXXXXXXXXXX
0800 : XXXXXXXXXXXXXXXX XXXXXXXXXXXXXXXX XXXXXXXXXXXXXXXX XXXXXXXXXXXXXXXX
0840 : XXXXXXXXXXXXXXXX XXXXXXXXXXXXXXXX XXXXXXXXXXXXXXXX XXXXXXXXXXXXXXXX
0880 : XXXXXXXXXXXXXXXX XXXXXXXXXXXXXXXX XXXXXXXXXXXXXXXX XXXXXXXXXXXXXXXX
08C0 : XXXXXXXXXXXXXXXX XXXXXXXXXXXXXXXX XXXXXXXXXXXXXXXX XXXXXXXXXXXXXXXX
0900 : XXXXXXXXXXXXXXXX XXXXXXXXXXXXXXXX XXXXXXXXXXXXXXXX XXXXXXXXXXXXXXXX
0940 : XXXXXXXXXXXXXXXX XXXXXXXXXXXXXXXX XXXXXXXXXXXXXXXX XXXXXXXXXXXXXXXX
0980 : XXXXXXXXXXXXXXXX XXXXXXXXXXXXXXXX XXXXXXXXXXXXXXXX XXXXXXXXXXXXXXXX
09C0 : XXXXXXXXXXXXXXXX XXXXXXXXXXXXXXXX XXXXXXXXXXXXXXXX XXXXXXXXXXXXXXXX
0A00 : XXXXXXXXXXXXXXXX XXXXXXXXXXXXXXXX XXXXXXXXXXXXXXXX XXXXXXXXXXXXXXXX
0A40 : XXXXXXXXXXXXXXXX XXXXXXXXXXXXXXXX XXXXXXXXXXXXXXXX XXXXXXXXXXXXXXXX
0A80 : XXXXXXXXXXXXXXXX XXXXXXXXXXXXXXXX XXXXXXXXXXXXXXXX XXXXXXXXXXXXXXXX
0AC0 : XXXXXXXXXXXXXXXX XXXXXXXXXXXXXXXX XXXXXXXXXXXXXXXX XXXXXXXXXXXXXXXX
0B00 : XXXXXXXXXXXXXXXX XXXXXXXXXXXXXXXX XXXXXXXXXXXXXXXX XXXXXXXXXXXXXXXX
0B40 : XXXXXXXXXXXXXXXX XXXXXXXXXXXXXXXX XXXXXXXXXXXXXXXX XXXXXXXXXXXXXXXX
0B80 : XXXXXXXXXXXXXXXX XXXXXXXXXXXXXXXX XXXXXXXXXXXXXXXX XXXXXXXXXXXXXXXX
0BC0 : XXXXXXXXXXXXXXXX XXXXXXXXXXXXXXXX XXXXXXXXXXXXXXXX XXXXXXXXXXXXXXXX
0C00 : XXXXXXXXXXXXXXXX XXXXXXXXXXXXXXXX XXXXXXXXXXXXXXXX XXXXXXXXXXXXXXXX
0C40 : XXXXXXXXXXXXXXXX XXXXXXXXXXXXXXXX XXXXXXXXXXXXXXXX XXXXXXXXXXXXXXXX
0C80 : XXXXXXXXXXXXXXXX XXXXXXXXXXXXXXXX XXXXXXXXXXXXXXXX XXXXXXXXXXXXXXXX
0CC0 : XXXXXXXXXXXXXXXX XXXXXXXXXXXXXXXX XXXXXXXXXXXXXXXX XXXXXXXXXXXXXXXX
0D00 : XXXXXXXXXXXXXXXX XXXXXXXXXXXXXXXX XXXXXXXXXXXXXXXX XXXXXXXXXXXXXXXX
0D40 : XXXXXXXXXXXXXXXX XXXXXXXXXXXXXXXX XXXXXXXXXXXXXXXX XXXXXXXXXXXXXXXX
0D80 : XXXXXXXXXXXXXXXX XXXXXXXXXXXXXXXX XXXXXXXXXXXXXXXX XXXXXXXXXXXXXXXX
0DC0 : XXXXXXXXXXXXXXXX XXXXXXXXXXXXXXXX XXXXXXXXXXXXXXXX XXXXXXXXXXXXXXXX
0E00 : XXXXXXXXXXXXXXXX XXXXXXXXXXXXXXXX XXXXXXXXXXXXXXXX XXXXXXXXXXXXXXXX
0E40 : XXXXXXXXXXXXXXXX XXXXXXXXXXXXXXXX XXXXXXXXXXXXXXXX XXXXXXXXXXXXXXXX
0E80 : XXXXXXXXXXXXXXXX XXXXXXXXXXXXXXXX XXXXXXXXXXXXXXXX XXXXXXXXXXXXXX--

All other memory blocks unused.

Program Memory Words Used:  1880

